ARM GAS  /var/folders/4f/bvl6__ys6qq7h5n0wwljfc200000gn/T//cchNM4Pb.s 			page 1


   1              		.cpu cortex-m7
   2              		.eabi_attribute 28, 1
   3              		.eabi_attribute 20, 1
   4              		.eabi_attribute 21, 1
   5              		.eabi_attribute 23, 3
   6              		.eabi_attribute 24, 1
   7              		.eabi_attribute 25, 1
   8              		.eabi_attribute 26, 1
   9              		.eabi_attribute 30, 1
  10              		.eabi_attribute 34, 1
  11              		.eabi_attribute 18, 4
  12              		.file	"main.c"
  13              		.text
  14              	.Ltext0:
  15              		.cfi_sections	.debug_frame
  16              		.section	.text.MX_SDMMC2_SD_Init,"ax",%progbits
  17              		.align	1
  18              		.arch armv7e-m
  19              		.syntax unified
  20              		.thumb
  21              		.thumb_func
  22              		.fpu fpv5-d16
  24              	MX_SDMMC2_SD_Init:
  25              	.LFB149:
  26              		.file 1 "Src/main.c"
   1:Src/main.c    **** /* USER CODE BEGIN Header */
   2:Src/main.c    **** /**
   3:Src/main.c    ****   ******************************************************************************
   4:Src/main.c    ****   * @file           : main.c
   5:Src/main.c    ****   * @brief          : Main program body
   6:Src/main.c    ****   ******************************************************************************
   7:Src/main.c    ****   * @attention
   8:Src/main.c    ****   *
   9:Src/main.c    ****   * <h2><center>&copy; Copyright (c) 2020 STMicroelectronics.
  10:Src/main.c    ****   * All rights reserved.</center></h2>
  11:Src/main.c    ****   *
  12:Src/main.c    ****   * This software component is licensed by ST under Ultimate Liberty license
  13:Src/main.c    ****   * SLA0044, the "License"; You may not use this file except in compliance with
  14:Src/main.c    ****   * the License. You may obtain a copy of the License at:
  15:Src/main.c    ****   *                             www.st.com/SLA0044
  16:Src/main.c    ****   *
  17:Src/main.c    ****   ******************************************************************************
  18:Src/main.c    ****   */
  19:Src/main.c    **** /* USER CODE END Header */
  20:Src/main.c    **** 
  21:Src/main.c    **** /* Includes ------------------------------------------------------------------*/
  22:Src/main.c    **** #include "main.h"
  23:Src/main.c    **** #include "fatfs.h"
  24:Src/main.c    **** 
  25:Src/main.c    **** /* Private includes ----------------------------------------------------------*/
  26:Src/main.c    **** /* USER CODE BEGIN Includes */
  27:Src/main.c    **** #include <stdio.h>
  28:Src/main.c    **** #include <string.h>
  29:Src/main.c    **** #include <stdarg.h>
  30:Src/main.c    **** 
  31:Src/main.c    **** #include "SEGGER_RTT.h"
  32:Src/main.c    **** 
ARM GAS  /var/folders/4f/bvl6__ys6qq7h5n0wwljfc200000gn/T//cchNM4Pb.s 			page 2


  33:Src/main.c    **** /* USER CODE END Includes */
  34:Src/main.c    **** 
  35:Src/main.c    **** /* Private typedef -----------------------------------------------------------*/
  36:Src/main.c    **** /* USER CODE BEGIN PTD */
  37:Src/main.c    **** 
  38:Src/main.c    **** /* USER CODE END PTD */
  39:Src/main.c    **** 
  40:Src/main.c    **** /* Private define ------------------------------------------------------------*/
  41:Src/main.c    **** /* USER CODE BEGIN PD */
  42:Src/main.c    **** #define SAMPLE_COUNT 262144
  43:Src/main.c    **** #define SAMPLE_BUFFER_SIZE 128
  44:Src/main.c    **** /* USER CODE END PD */
  45:Src/main.c    **** 
  46:Src/main.c    **** /* Private macro -------------------------------------------------------------*/
  47:Src/main.c    **** /* USER CODE BEGIN PM */
  48:Src/main.c    **** 
  49:Src/main.c    **** /* USER CODE END PM */
  50:Src/main.c    **** 
  51:Src/main.c    **** /* Private variables ---------------------------------------------------------*/
  52:Src/main.c    **** 
  53:Src/main.c    **** I2S_HandleTypeDef hi2s1;
  54:Src/main.c    **** 
  55:Src/main.c    **** QSPI_HandleTypeDef hqspi;
  56:Src/main.c    **** 
  57:Src/main.c    **** SD_HandleTypeDef hsd2;
  58:Src/main.c    **** 
  59:Src/main.c    **** SPI_HandleTypeDef hspi4;
  60:Src/main.c    **** 
  61:Src/main.c    **** UART_HandleTypeDef huart1;
  62:Src/main.c    **** UART_HandleTypeDef huart2;
  63:Src/main.c    **** 
  64:Src/main.c    **** PCD_HandleTypeDef hpcd_USB_OTG_FS;
  65:Src/main.c    **** 
  66:Src/main.c    **** /* USER CODE BEGIN PV */
  67:Src/main.c    **** char buffer[256];
  68:Src/main.c    **** 
  69:Src/main.c    **** uint32_t I2S_RxBuffer_L[SAMPLE_BUFFER_SIZE];
  70:Src/main.c    **** uint32_t I2S_RxBuffer_R[SAMPLE_BUFFER_SIZE];
  71:Src/main.c    **** uint32_t I2S_RxBuffer_L_Index = 0;
  72:Src/main.c    **** uint32_t I2S_RxBuffer_R_Index = 0;
  73:Src/main.c    **** /* USER CODE END PV */
  74:Src/main.c    **** 
  75:Src/main.c    **** /* Private function prototypes -----------------------------------------------*/
  76:Src/main.c    **** void SystemClock_Config(void);
  77:Src/main.c    **** static void MX_GPIO_Init(void);
  78:Src/main.c    **** static void MX_I2S1_Init(void);
  79:Src/main.c    **** static void MX_QUADSPI_Init(void);
  80:Src/main.c    **** static void MX_SDMMC2_SD_Init(void);
  81:Src/main.c    **** static void MX_SPI4_Init(void);
  82:Src/main.c    **** static void MX_USART1_UART_Init(void);
  83:Src/main.c    **** static void MX_USART2_UART_Init(void);
  84:Src/main.c    **** static void MX_USB_OTG_FS_PCD_Init(void);
  85:Src/main.c    **** /* USER CODE BEGIN PFP */
  86:Src/main.c    **** void myprintf(const char *fmt, ...);
  87:Src/main.c    **** FRESULT scan_files (char* path);
  88:Src/main.c    **** 
  89:Src/main.c    **** /* USER CODE END PFP */
ARM GAS  /var/folders/4f/bvl6__ys6qq7h5n0wwljfc200000gn/T//cchNM4Pb.s 			page 3


  90:Src/main.c    **** 
  91:Src/main.c    **** /* Private user code ---------------------------------------------------------*/
  92:Src/main.c    **** /* USER CODE BEGIN 0 */
  93:Src/main.c    **** 
  94:Src/main.c    **** /* USER CODE END 0 */
  95:Src/main.c    **** 
  96:Src/main.c    **** /**
  97:Src/main.c    ****   * @brief  The application entry point.
  98:Src/main.c    ****   * @retval int
  99:Src/main.c    ****   */
 100:Src/main.c    **** int main(void)
 101:Src/main.c    **** {
 102:Src/main.c    ****   /* USER CODE BEGIN 1 */
 103:Src/main.c    **** 
 104:Src/main.c    ****   /* USER CODE END 1 */
 105:Src/main.c    **** 
 106:Src/main.c    ****   /* Enable I-Cache---------------------------------------------------------*/
 107:Src/main.c    ****   SCB_EnableICache();
 108:Src/main.c    **** 
 109:Src/main.c    ****   /* Enable D-Cache---------------------------------------------------------*/
 110:Src/main.c    ****   SCB_EnableDCache();
 111:Src/main.c    **** 
 112:Src/main.c    ****   /* MCU Configuration--------------------------------------------------------*/
 113:Src/main.c    **** 
 114:Src/main.c    ****   /* Reset of all peripherals, Initializes the Flash interface and the Systick. */
 115:Src/main.c    ****   HAL_Init();
 116:Src/main.c    **** 
 117:Src/main.c    ****   /* USER CODE BEGIN Init */
 118:Src/main.c    **** 
 119:Src/main.c    ****   /* USER CODE END Init */
 120:Src/main.c    **** 
 121:Src/main.c    ****   /* Configure the system clock */
 122:Src/main.c    ****   SystemClock_Config();
 123:Src/main.c    **** 
 124:Src/main.c    ****   /* USER CODE BEGIN SysInit */
 125:Src/main.c    **** 
 126:Src/main.c    ****   /* USER CODE END SysInit */
 127:Src/main.c    **** 
 128:Src/main.c    ****   /* Initialize all configured peripherals */
 129:Src/main.c    ****   MX_GPIO_Init();
 130:Src/main.c    ****   MX_I2S1_Init();
 131:Src/main.c    ****   // MX_QUADSPI_Init();
 132:Src/main.c    ****   MX_SDMMC2_SD_Init();
 133:Src/main.c    ****   // MX_SPI4_Init();
 134:Src/main.c    ****   // MX_USART1_UART_Init();
 135:Src/main.c    ****   // MX_USART2_UART_Init();
 136:Src/main.c    ****   // MX_USB_OTG_FS_PCD_Init();
 137:Src/main.c    ****   MX_FATFS_Init();
 138:Src/main.c    ****   
 139:Src/main.c    ****   BSP_SD_Init();
 140:Src/main.c    ****   HAL_Delay(1000);
 141:Src/main.c    **** 
 142:Src/main.c    ****   /* Init FatFS and data files. */
 143:Src/main.c    ****   FATFS FatFs;
 144:Src/main.c    ****   FIL ch0, ch1;
 145:Src/main.c    ****   FRESULT fres;
 146:Src/main.c    **** 
ARM GAS  /var/folders/4f/bvl6__ys6qq7h5n0wwljfc200000gn/T//cchNM4Pb.s 			page 4


 147:Src/main.c    ****   fres = f_mount(&FatFs, "/", 1); //1=mount now
 148:Src/main.c    ****   if (fres != FR_OK) {
 149:Src/main.c    ****     myprintf("f_mount error (%i)\r\n", fres);
 150:Src/main.c    ****     Error_Handler();
 151:Src/main.c    ****   }
 152:Src/main.c    **** 
 153:Src/main.c    ****   fres = f_open(&ch0, "0.txt", FA_WRITE | FA_OPEN_ALWAYS | FA_CREATE_ALWAYS);
 154:Src/main.c    ****   if(fres == FR_OK) {
 155:Src/main.c    ****     myprintf("I was able to open '0.txt' for writing\r\n");
 156:Src/main.c    ****   } else {
 157:Src/main.c    ****     myprintf("f_open error (%i)\r\n", fres);
 158:Src/main.c    ****   }
 159:Src/main.c    **** 
 160:Src/main.c    ****   fres = f_open(&ch1, "1.txt", FA_WRITE | FA_OPEN_ALWAYS | FA_CREATE_ALWAYS);
 161:Src/main.c    ****   if(fres == FR_OK) {
 162:Src/main.c    ****     myprintf("I was able to open '1.txt' for writing\r\n");
 163:Src/main.c    ****   } else {
 164:Src/main.c    ****     myprintf("f_open error (%i)\r\n", fres);
 165:Src/main.c    ****   }
 166:Src/main.c    ****     
 167:Src/main.c    ****   /* I2S Acquisition */
 168:Src/main.c    ****   uint32_t count = 0;
 169:Src/main.c    ****   uint8_t channel = 0;
 170:Src/main.c    ****   uint8_t last_channel = 0;
 171:Src/main.c    ****   uint16_t data[2] = {0};
 172:Src/main.c    ****   uint16_t status[2] = {0};
 173:Src/main.c    ****   uint32_t bw0;
 174:Src/main.c    ****   uint32_t bw1;
 175:Src/main.c    **** 
 176:Src/main.c    ****   while(count < SAMPLE_COUNT) {
 177:Src/main.c    ****     HAL_I2S_Receive(&hi2s1, data, status, 1, 100);
 178:Src/main.c    ****     if(status[0] == status[1]) {
 179:Src/main.c    ****       channel = (uint8_t) status[0] & 0x4;
 180:Src/main.c    ****       if(channel != last_channel) {
 181:Src/main.c    ****         switch(channel) {
 182:Src/main.c    ****           case 0x0:
 183:Src/main.c    ****             I2S_RxBuffer_L[I2S_RxBuffer_L_Index++] = ((int32_t) data[0] << 16 | data[1]) >> 8;
 184:Src/main.c    ****             break;
 185:Src/main.c    ****           case 0x4:
 186:Src/main.c    ****             I2S_RxBuffer_R[I2S_RxBuffer_R_Index++] = ((int32_t) data[0] << 16 | data[1]) >> 8; 
 187:Src/main.c    ****             break;
 188:Src/main.c    ****         }
 189:Src/main.c    ****         last_channel = channel;
 190:Src/main.c    ****         count++;
 191:Src/main.c    ****       }
 192:Src/main.c    ****     }
 193:Src/main.c    ****     if(count % (SAMPLE_BUFFER_SIZE * 2) == 0 && count != 0) {
 194:Src/main.c    ****       I2S_RxBuffer_L_Index = 0;
 195:Src/main.c    ****       I2S_RxBuffer_R_Index = 0;
 196:Src/main.c    ****       f_write(&ch0, I2S_RxBuffer_L, 512, &bw0);
 197:Src/main.c    ****       f_write(&ch1, I2S_RxBuffer_R, 512, &bw1);
 198:Src/main.c    ****     }
 199:Src/main.c    ****   }
 200:Src/main.c    **** 
 201:Src/main.c    ****   count = 0;
 202:Src/main.c    ****   uint32_t limit = (I2S_RxBuffer_L_Index > I2S_RxBuffer_R_Index) ? I2S_RxBuffer_R_Index : I2S_RxBuf
 203:Src/main.c    ****   while(count < limit) {
ARM GAS  /var/folders/4f/bvl6__ys6qq7h5n0wwljfc200000gn/T//cchNM4Pb.s 			page 5


 204:Src/main.c    ****     SEGGER_RTT_printf(0, "%d, %d, %d\r\n", count, I2S_RxBuffer_L[count], I2S_RxBuffer_R[count]);
 205:Src/main.c    ****     HAL_Delay(1);
 206:Src/main.c    ****     count++;
 207:Src/main.c    ****   }
 208:Src/main.c    **** 
 209:Src/main.c    ****   /* FatFS teardown */
 210:Src/main.c    **** 
 211:Src/main.c    ****   FILINFO f0, f1;
 212:Src/main.c    **** 
 213:Src/main.c    ****   f_stat("0.txt", &f0);
 214:Src/main.c    ****   SEGGER_RTT_printf(0, "File size: %d", f0.fsize);
 215:Src/main.c    ****   f_stat("1.txt", &f1);
 216:Src/main.c    ****   SEGGER_RTT_printf(0, "File size: %d", f1.fsize);
 217:Src/main.c    **** 
 218:Src/main.c    ****   f_close(&ch0);
 219:Src/main.c    ****   f_close(&ch1);
 220:Src/main.c    ****   f_mount(NULL, "", 0);
 221:Src/main.c    **** 
 222:Src/main.c    ****   /* SD Card Initialization and test. */
 223:Src/main.c    **** 
 224:Src/main.c    ****   // if (fres == FR_OK) {
 225:Src/main.c    ****   //     strcpy(buffer, "/");
 226:Src/main.c    ****   //     fres = scan_files(buffer);
 227:Src/main.c    ****   // }
 228:Src/main.c    **** 
 229:Src/main.c    ****   // //Try to open file
 230:Src/main.c    ****   // fres = f_open(&fil, "test.txt", FA_READ);
 231:Src/main.c    ****   // if (fres != FR_OK) {
 232:Src/main.c    ****   //   myprintf("f_open error (%i)\r\n", fres);
 233:Src/main.c    ****   //   while(1);
 234:Src/main.c    ****   // }
 235:Src/main.c    ****   // myprintf("I was able to open 'test.txt' for reading!\r\n");
 236:Src/main.c    **** 
 237:Src/main.c    ****   // BYTE readBuf[30];
 238:Src/main.c    ****   
 239:Src/main.c    ****   // //We can either use f_read OR f_gets to get data out of files
 240:Src/main.c    ****   // //f_gets is a wrapper on f_read that does some string formatting for us
 241:Src/main.c    ****   // TCHAR* rres = f_gets((TCHAR*)readBuf, 30, &fil);
 242:Src/main.c    ****   // if(rres != 0) {
 243:Src/main.c    ****   //   myprintf("Read string from 'test.txt' contents: ");
 244:Src/main.c    ****   //   SEGGER_RTT_WriteString(0, readBuf);
 245:Src/main.c    ****   //   SEGGER_RTT_WriteString(0, "\r\n");
 246:Src/main.c    **** 
 247:Src/main.c    ****   // } else {
 248:Src/main.c    ****   //   myprintf("f_gets error (%i)\r\n", fres);
 249:Src/main.c    ****   // }
 250:Src/main.c    ****   
 251:Src/main.c    ****   // //Close file, don't forget this!
 252:Src/main.c    ****   // f_close(&fil);
 253:Src/main.c    **** 
 254:Src/main.c    ****   // fres = f_open(&fil, "write.txt", FA_WRITE | FA_OPEN_ALWAYS | FA_CREATE_ALWAYS);
 255:Src/main.c    ****   // if(fres == FR_OK) {
 256:Src/main.c    ****   //   myprintf("I was able to open 'write.txt' for writing\r\n");
 257:Src/main.c    ****   // } else {
 258:Src/main.c    ****   //   myprintf("f_open error (%i)\r\n", fres);
 259:Src/main.c    ****   // }
 260:Src/main.c    **** 
ARM GAS  /var/folders/4f/bvl6__ys6qq7h5n0wwljfc200000gn/T//cchNM4Pb.s 			page 6


 261:Src/main.c    ****   // strncpy((char*)readBuf, "hello from mixr!", 19);
 262:Src/main.c    ****   // UINT bytesWrote; 
 263:Src/main.c    ****   // fres = f_write(&fil, readBuf, 19, &bytesWrote);
 264:Src/main.c    ****   // if(fres == FR_OK) {
 265:Src/main.c    ****   //   myprintf("Wrote %i bytes to 'write.txt'!\r\n", bytesWrote);
 266:Src/main.c    ****   // } else {
 267:Src/main.c    ****   //   myprintf("f_write error (%i)\r\n");
 268:Src/main.c    ****   // }
 269:Src/main.c    **** 
 270:Src/main.c    ****   // //Close file, don't forget this!
 271:Src/main.c    ****   // f_close(&fil);
 272:Src/main.c    **** 
 273:Src/main.c    ****   // //De-mount drive
 274:Src/main.c    ****   // f_mount(NULL, "", 0);
 275:Src/main.c    ****   
 276:Src/main.c    ****   while (1)
 277:Src/main.c    ****   {
 278:Src/main.c    ****     /* USER CODE END WHILE */
 279:Src/main.c    ****     HAL_GPIO_TogglePin(DEBUG_LED_0_GPIO_Port, DEBUG_LED_0_Pin);
 280:Src/main.c    ****     HAL_Delay(500);
 281:Src/main.c    ****     /* USER CODE BEGIN 3 */
 282:Src/main.c    ****   }
 283:Src/main.c    **** 
 284:Src/main.c    ****   /* USER CODE END 3 */
 285:Src/main.c    **** }
 286:Src/main.c    **** 
 287:Src/main.c    **** FRESULT scan_files (
 288:Src/main.c    ****     char* path        /* Start node to be scanned (***also used as work area***) */
 289:Src/main.c    **** )
 290:Src/main.c    **** {
 291:Src/main.c    ****     FRESULT res;
 292:Src/main.c    ****     DIR dir;
 293:Src/main.c    ****     UINT i;
 294:Src/main.c    ****     static FILINFO fno;
 295:Src/main.c    **** 
 296:Src/main.c    **** 
 297:Src/main.c    ****     res = f_opendir(&dir, path);                       /* Open the directory */
 298:Src/main.c    ****     if (res == FR_OK) {
 299:Src/main.c    ****         for (;;) {
 300:Src/main.c    ****             res = f_readdir(&dir, &fno);                   /* Read a directory item */
 301:Src/main.c    ****             if (res != FR_OK || fno.fname[0] == 0) break;  /* Break on error or end of dir */
 302:Src/main.c    ****             // if (fno.fattrib & AM_DIR) {                    /* It is a directory */
 303:Src/main.c    ****             //     i = strlen(path);
 304:Src/main.c    ****             //     sprintf(&path[i], "/%s", fno.fname);
 305:Src/main.c    ****             //     myprintf("%s\n", fno.fname);
 306:Src/main.c    ****             //     res = scan_files(path);                    /* Enter the directory */
 307:Src/main.c    ****             //     if (res != FR_OK) break;
 308:Src/main.c    ****             //     path[i] = 0;
 309:Src/main.c    ****             // } else {                                       /* It is a file. */
 310:Src/main.c    ****             SEGGER_RTT_WriteString(0, fno.fname);
 311:Src/main.c    ****             SEGGER_RTT_WriteString(0, "\r\n");
 312:Src/main.c    ****             //}
 313:Src/main.c    ****         }
 314:Src/main.c    ****         f_closedir(&dir);
 315:Src/main.c    ****     }
 316:Src/main.c    **** 
 317:Src/main.c    ****     return res;
ARM GAS  /var/folders/4f/bvl6__ys6qq7h5n0wwljfc200000gn/T//cchNM4Pb.s 			page 7


 318:Src/main.c    **** }
 319:Src/main.c    **** 
 320:Src/main.c    **** /**
 321:Src/main.c    ****   * @brief System Clock Configuration
 322:Src/main.c    ****   * @retval None
 323:Src/main.c    ****   */
 324:Src/main.c    **** void SystemClock_Config(void)
 325:Src/main.c    **** {
 326:Src/main.c    ****   RCC_OscInitTypeDef RCC_OscInitStruct = {0};
 327:Src/main.c    ****   RCC_ClkInitTypeDef RCC_ClkInitStruct = {0};
 328:Src/main.c    ****   RCC_PeriphCLKInitTypeDef PeriphClkInitStruct = {0};
 329:Src/main.c    **** 
 330:Src/main.c    ****   /** Configure the main internal regulator output voltage 
 331:Src/main.c    ****   */
 332:Src/main.c    ****   __HAL_RCC_PWR_CLK_ENABLE();
 333:Src/main.c    ****   __HAL_PWR_VOLTAGESCALING_CONFIG(PWR_REGULATOR_VOLTAGE_SCALE3);
 334:Src/main.c    ****   /** Initializes the CPU, AHB and APB busses clocks 
 335:Src/main.c    ****   */
 336:Src/main.c    ****   RCC_OscInitStruct.OscillatorType = RCC_OSCILLATORTYPE_HSE;
 337:Src/main.c    ****   RCC_OscInitStruct.HSEState = RCC_HSE_ON;
 338:Src/main.c    ****   RCC_OscInitStruct.PLL.PLLState = RCC_PLL_ON;
 339:Src/main.c    ****   RCC_OscInitStruct.PLL.PLLSource = RCC_PLLSOURCE_HSE;
 340:Src/main.c    ****   RCC_OscInitStruct.PLL.PLLM = 25;
 341:Src/main.c    ****   RCC_OscInitStruct.PLL.PLLN = 192;
 342:Src/main.c    ****   RCC_OscInitStruct.PLL.PLLP = RCC_PLLP_DIV4;
 343:Src/main.c    ****   RCC_OscInitStruct.PLL.PLLQ = 4;
 344:Src/main.c    ****   if (HAL_RCC_OscConfig(&RCC_OscInitStruct) != HAL_OK)
 345:Src/main.c    ****   {
 346:Src/main.c    ****     Error_Handler();
 347:Src/main.c    ****   }
 348:Src/main.c    ****   /** Initializes the CPU, AHB and APB busses clocks 
 349:Src/main.c    ****   */
 350:Src/main.c    ****   RCC_ClkInitStruct.ClockType = RCC_CLOCKTYPE_HCLK|RCC_CLOCKTYPE_SYSCLK
 351:Src/main.c    ****                               |RCC_CLOCKTYPE_PCLK1|RCC_CLOCKTYPE_PCLK2;
 352:Src/main.c    ****   RCC_ClkInitStruct.SYSCLKSource = RCC_SYSCLKSOURCE_PLLCLK;
 353:Src/main.c    ****   RCC_ClkInitStruct.AHBCLKDivider = RCC_SYSCLK_DIV1;
 354:Src/main.c    ****   RCC_ClkInitStruct.APB1CLKDivider = RCC_HCLK_DIV8;
 355:Src/main.c    ****   RCC_ClkInitStruct.APB2CLKDivider = RCC_HCLK_DIV8;
 356:Src/main.c    **** 
 357:Src/main.c    ****   if (HAL_RCC_ClockConfig(&RCC_ClkInitStruct, FLASH_LATENCY_1) != HAL_OK)
 358:Src/main.c    ****   {
 359:Src/main.c    ****     Error_Handler();
 360:Src/main.c    ****   }
 361:Src/main.c    ****   PeriphClkInitStruct.PeriphClockSelection = RCC_PERIPHCLK_USART1|RCC_PERIPHCLK_USART2
 362:Src/main.c    ****                               |RCC_PERIPHCLK_SDMMC2|RCC_PERIPHCLK_I2S
 363:Src/main.c    ****                               |RCC_PERIPHCLK_CLK48;
 364:Src/main.c    ****   PeriphClkInitStruct.PLLI2S.PLLI2SN = 192;
 365:Src/main.c    ****   PeriphClkInitStruct.PLLI2S.PLLI2SP = RCC_PLLP_DIV2;
 366:Src/main.c    ****   PeriphClkInitStruct.PLLI2S.PLLI2SR = 2;
 367:Src/main.c    ****   PeriphClkInitStruct.PLLI2S.PLLI2SQ = 2;
 368:Src/main.c    ****   PeriphClkInitStruct.PLLI2SDivQ = 1;
 369:Src/main.c    ****   PeriphClkInitStruct.I2sClockSelection = RCC_I2SCLKSOURCE_PLLI2S;
 370:Src/main.c    ****   PeriphClkInitStruct.Usart1ClockSelection = RCC_USART1CLKSOURCE_PCLK2;
 371:Src/main.c    ****   PeriphClkInitStruct.Usart2ClockSelection = RCC_USART2CLKSOURCE_PCLK1;
 372:Src/main.c    ****   PeriphClkInitStruct.Clk48ClockSelection = RCC_CLK48SOURCE_PLL;
 373:Src/main.c    ****   PeriphClkInitStruct.Sdmmc2ClockSelection = RCC_SDMMC2CLKSOURCE_SYSCLK;
 374:Src/main.c    ****   if (HAL_RCCEx_PeriphCLKConfig(&PeriphClkInitStruct) != HAL_OK)
ARM GAS  /var/folders/4f/bvl6__ys6qq7h5n0wwljfc200000gn/T//cchNM4Pb.s 			page 8


 375:Src/main.c    ****   {
 376:Src/main.c    ****     Error_Handler();
 377:Src/main.c    ****   }
 378:Src/main.c    **** }
 379:Src/main.c    **** 
 380:Src/main.c    **** /**
 381:Src/main.c    ****   * @brief I2S1 Initialization Function
 382:Src/main.c    ****   * @param None
 383:Src/main.c    ****   * @retval None
 384:Src/main.c    ****   */
 385:Src/main.c    **** static void MX_I2S1_Init(void)
 386:Src/main.c    **** {
 387:Src/main.c    **** 
 388:Src/main.c    ****   /* USER CODE BEGIN I2S1_Init 0 */
 389:Src/main.c    **** 
 390:Src/main.c    ****   /* USER CODE END I2S1_Init 0 */
 391:Src/main.c    **** 
 392:Src/main.c    ****   /* USER CODE BEGIN I2S1_Init 1 */
 393:Src/main.c    **** 
 394:Src/main.c    ****   /* USER CODE END I2S1_Init 1 */
 395:Src/main.c    ****   hi2s1.Instance = SPI1;
 396:Src/main.c    ****   hi2s1.Init.Mode = I2S_MODE_MASTER_RX;
 397:Src/main.c    ****   hi2s1.Init.Standard = I2S_STANDARD_PHILIPS;
 398:Src/main.c    ****   hi2s1.Init.DataFormat = I2S_DATAFORMAT_24B;
 399:Src/main.c    ****   hi2s1.Init.MCLKOutput = I2S_MCLKOUTPUT_ENABLE;
 400:Src/main.c    ****   hi2s1.Init.AudioFreq = I2S_AUDIOFREQ_44K;
 401:Src/main.c    ****   hi2s1.Init.CPOL = I2S_CPOL_LOW;
 402:Src/main.c    ****   hi2s1.Init.ClockSource = I2S_CLOCK_PLL;
 403:Src/main.c    ****   if (HAL_I2S_Init(&hi2s1) != HAL_OK)
 404:Src/main.c    ****   {
 405:Src/main.c    ****     Error_Handler();
 406:Src/main.c    ****   }
 407:Src/main.c    ****   /* USER CODE BEGIN I2S1_Init 2 */
 408:Src/main.c    **** 
 409:Src/main.c    ****   /* USER CODE END I2S1_Init 2 */
 410:Src/main.c    **** 
 411:Src/main.c    **** }
 412:Src/main.c    **** 
 413:Src/main.c    **** /**
 414:Src/main.c    ****   * @brief QUADSPI Initialization Function
 415:Src/main.c    ****   * @param None
 416:Src/main.c    ****   * @retval None
 417:Src/main.c    ****   */
 418:Src/main.c    **** static void MX_QUADSPI_Init(void)
 419:Src/main.c    **** {
 420:Src/main.c    **** 
 421:Src/main.c    ****   /* USER CODE BEGIN QUADSPI_Init 0 */
 422:Src/main.c    **** 
 423:Src/main.c    ****   /* USER CODE END QUADSPI_Init 0 */
 424:Src/main.c    **** 
 425:Src/main.c    ****   /* USER CODE BEGIN QUADSPI_Init 1 */
 426:Src/main.c    **** 
 427:Src/main.c    ****   /* USER CODE END QUADSPI_Init 1 */
 428:Src/main.c    ****   /* QUADSPI parameter configuration*/
 429:Src/main.c    ****   hqspi.Instance = QUADSPI;
 430:Src/main.c    ****   hqspi.Init.ClockPrescaler = 255;
 431:Src/main.c    ****   hqspi.Init.FifoThreshold = 1;
ARM GAS  /var/folders/4f/bvl6__ys6qq7h5n0wwljfc200000gn/T//cchNM4Pb.s 			page 9


 432:Src/main.c    ****   hqspi.Init.SampleShifting = QSPI_SAMPLE_SHIFTING_NONE;
 433:Src/main.c    ****   hqspi.Init.FlashSize = 1;
 434:Src/main.c    ****   hqspi.Init.ChipSelectHighTime = QSPI_CS_HIGH_TIME_1_CYCLE;
 435:Src/main.c    ****   hqspi.Init.ClockMode = QSPI_CLOCK_MODE_0;
 436:Src/main.c    ****   hqspi.Init.FlashID = QSPI_FLASH_ID_1;
 437:Src/main.c    ****   hqspi.Init.DualFlash = QSPI_DUALFLASH_DISABLE;
 438:Src/main.c    ****   if (HAL_QSPI_Init(&hqspi) != HAL_OK)
 439:Src/main.c    ****   {
 440:Src/main.c    ****     Error_Handler();
 441:Src/main.c    ****   }
 442:Src/main.c    ****   /* USER CODE BEGIN QUADSPI_Init 2 */
 443:Src/main.c    **** 
 444:Src/main.c    ****   /* USER CODE END QUADSPI_Init 2 */
 445:Src/main.c    **** 
 446:Src/main.c    **** }
 447:Src/main.c    **** 
 448:Src/main.c    **** /**
 449:Src/main.c    ****   * @brief SDMMC2 Initialization Function
 450:Src/main.c    ****   * @param None
 451:Src/main.c    ****   * @retval None
 452:Src/main.c    ****   */
 453:Src/main.c    **** static void MX_SDMMC2_SD_Init(void)
 454:Src/main.c    **** {
  27              		.loc 1 454 1 view -0
  28              		.cfi_startproc
  29              		@ args = 0, pretend = 0, frame = 0
  30              		@ frame_needed = 0, uses_anonymous_args = 0
  31              		@ link register save eliminated.
 455:Src/main.c    **** 
 456:Src/main.c    ****   /* USER CODE BEGIN SDMMC2_Init 0 */
 457:Src/main.c    **** 
 458:Src/main.c    ****   /* USER CODE END SDMMC2_Init 0 */
 459:Src/main.c    **** 
 460:Src/main.c    ****   /* USER CODE BEGIN SDMMC2_Init 1 */
 461:Src/main.c    **** 
 462:Src/main.c    ****   /* USER CODE END SDMMC2_Init 1 */
 463:Src/main.c    ****   hsd2.Instance = SDMMC2;
  32              		.loc 1 463 3 view .LVU1
  33              		.loc 1 463 17 is_stmt 0 view .LVU2
  34 0000 054B     		ldr	r3, .L2
  35 0002 064A     		ldr	r2, .L2+4
  36 0004 1A60     		str	r2, [r3]
 464:Src/main.c    ****   hsd2.Init.ClockEdge = SDMMC_CLOCK_EDGE_RISING;
  37              		.loc 1 464 3 is_stmt 1 view .LVU3
  38              		.loc 1 464 23 is_stmt 0 view .LVU4
  39 0006 0022     		movs	r2, #0
  40 0008 5A60     		str	r2, [r3, #4]
 465:Src/main.c    ****   hsd2.Init.ClockBypass = SDMMC_CLOCK_BYPASS_DISABLE;
  41              		.loc 1 465 3 is_stmt 1 view .LVU5
  42              		.loc 1 465 25 is_stmt 0 view .LVU6
  43 000a 9A60     		str	r2, [r3, #8]
 466:Src/main.c    ****   hsd2.Init.ClockPowerSave = SDMMC_CLOCK_POWER_SAVE_DISABLE;
  44              		.loc 1 466 3 is_stmt 1 view .LVU7
  45              		.loc 1 466 28 is_stmt 0 view .LVU8
  46 000c DA60     		str	r2, [r3, #12]
 467:Src/main.c    ****   hsd2.Init.BusWide = SDMMC_BUS_WIDE_1B;
  47              		.loc 1 467 3 is_stmt 1 view .LVU9
ARM GAS  /var/folders/4f/bvl6__ys6qq7h5n0wwljfc200000gn/T//cchNM4Pb.s 			page 10


  48              		.loc 1 467 21 is_stmt 0 view .LVU10
  49 000e 1A61     		str	r2, [r3, #16]
 468:Src/main.c    ****   hsd2.Init.HardwareFlowControl = SDMMC_HARDWARE_FLOW_CONTROL_DISABLE;
  50              		.loc 1 468 3 is_stmt 1 view .LVU11
  51              		.loc 1 468 33 is_stmt 0 view .LVU12
  52 0010 5A61     		str	r2, [r3, #20]
 469:Src/main.c    ****   hsd2.Init.ClockDiv = 0;
  53              		.loc 1 469 3 is_stmt 1 view .LVU13
  54              		.loc 1 469 22 is_stmt 0 view .LVU14
  55 0012 9A61     		str	r2, [r3, #24]
 470:Src/main.c    ****   /* USER CODE BEGIN SDMMC2_Init 2 */
 471:Src/main.c    **** 
 472:Src/main.c    ****   /* USER CODE END SDMMC2_Init 2 */
 473:Src/main.c    **** 
 474:Src/main.c    **** }
  56              		.loc 1 474 1 view .LVU15
  57 0014 7047     		bx	lr
  58              	.L3:
  59 0016 00BF     		.align	2
  60              	.L2:
  61 0018 00000000 		.word	hsd2
  62 001c 001C0140 		.word	1073814528
  63              		.cfi_endproc
  64              	.LFE149:
  66              		.section	.text.MX_GPIO_Init,"ax",%progbits
  67              		.align	1
  68              		.syntax unified
  69              		.thumb
  70              		.thumb_func
  71              		.fpu fpv5-d16
  73              	MX_GPIO_Init:
  74              	.LFB154:
 475:Src/main.c    **** 
 476:Src/main.c    **** /**
 477:Src/main.c    ****   * @brief SPI4 Initialization Function
 478:Src/main.c    ****   * @param None
 479:Src/main.c    ****   * @retval None
 480:Src/main.c    ****   */
 481:Src/main.c    **** static void MX_SPI4_Init(void)
 482:Src/main.c    **** {
 483:Src/main.c    **** 
 484:Src/main.c    ****   /* USER CODE BEGIN SPI4_Init 0 */
 485:Src/main.c    **** 
 486:Src/main.c    ****   /* USER CODE END SPI4_Init 0 */
 487:Src/main.c    **** 
 488:Src/main.c    ****   /* USER CODE BEGIN SPI4_Init 1 */
 489:Src/main.c    **** 
 490:Src/main.c    ****   /* USER CODE END SPI4_Init 1 */
 491:Src/main.c    ****   /* SPI4 parameter configuration*/
 492:Src/main.c    ****   hspi4.Instance = SPI4;
 493:Src/main.c    ****   hspi4.Init.Mode = SPI_MODE_MASTER;
 494:Src/main.c    ****   hspi4.Init.Direction = SPI_DIRECTION_2LINES;
 495:Src/main.c    ****   hspi4.Init.DataSize = SPI_DATASIZE_4BIT;
 496:Src/main.c    ****   hspi4.Init.CLKPolarity = SPI_POLARITY_LOW;
 497:Src/main.c    ****   hspi4.Init.CLKPhase = SPI_PHASE_1EDGE;
 498:Src/main.c    ****   hspi4.Init.NSS = SPI_NSS_HARD_OUTPUT;
 499:Src/main.c    ****   hspi4.Init.BaudRatePrescaler = SPI_BAUDRATEPRESCALER_2;
ARM GAS  /var/folders/4f/bvl6__ys6qq7h5n0wwljfc200000gn/T//cchNM4Pb.s 			page 11


 500:Src/main.c    ****   hspi4.Init.FirstBit = SPI_FIRSTBIT_MSB;
 501:Src/main.c    ****   hspi4.Init.TIMode = SPI_TIMODE_DISABLE;
 502:Src/main.c    ****   hspi4.Init.CRCCalculation = SPI_CRCCALCULATION_DISABLE;
 503:Src/main.c    ****   hspi4.Init.CRCPolynomial = 7;
 504:Src/main.c    ****   hspi4.Init.CRCLength = SPI_CRC_LENGTH_DATASIZE;
 505:Src/main.c    ****   hspi4.Init.NSSPMode = SPI_NSS_PULSE_ENABLE;
 506:Src/main.c    ****   if (HAL_SPI_Init(&hspi4) != HAL_OK)
 507:Src/main.c    ****   {
 508:Src/main.c    ****     Error_Handler();
 509:Src/main.c    ****   }
 510:Src/main.c    ****   /* USER CODE BEGIN SPI4_Init 2 */
 511:Src/main.c    **** 
 512:Src/main.c    ****   /* USER CODE END SPI4_Init 2 */
 513:Src/main.c    **** 
 514:Src/main.c    **** }
 515:Src/main.c    **** 
 516:Src/main.c    **** /**
 517:Src/main.c    ****   * @brief USART1 Initialization Function
 518:Src/main.c    ****   * @param None
 519:Src/main.c    ****   * @retval None
 520:Src/main.c    ****   */
 521:Src/main.c    **** static void MX_USART1_UART_Init(void)
 522:Src/main.c    **** {
 523:Src/main.c    **** 
 524:Src/main.c    ****   /* USER CODE BEGIN USART1_Init 0 */
 525:Src/main.c    **** 
 526:Src/main.c    ****   /* USER CODE END USART1_Init 0 */
 527:Src/main.c    **** 
 528:Src/main.c    ****   /* USER CODE BEGIN USART1_Init 1 */
 529:Src/main.c    **** 
 530:Src/main.c    ****   /* USER CODE END USART1_Init 1 */
 531:Src/main.c    ****   huart1.Instance = USART1;
 532:Src/main.c    ****   huart1.Init.BaudRate = 115200;
 533:Src/main.c    ****   huart1.Init.WordLength = UART_WORDLENGTH_8B;
 534:Src/main.c    ****   huart1.Init.StopBits = UART_STOPBITS_1;
 535:Src/main.c    ****   huart1.Init.Parity = UART_PARITY_NONE;
 536:Src/main.c    ****   huart1.Init.Mode = UART_MODE_TX_RX;
 537:Src/main.c    ****   huart1.Init.HwFlowCtl = UART_HWCONTROL_NONE;
 538:Src/main.c    ****   huart1.Init.OverSampling = UART_OVERSAMPLING_16;
 539:Src/main.c    ****   huart1.Init.OneBitSampling = UART_ONE_BIT_SAMPLE_DISABLE;
 540:Src/main.c    ****   huart1.AdvancedInit.AdvFeatureInit = UART_ADVFEATURE_NO_INIT;
 541:Src/main.c    ****   if (HAL_UART_Init(&huart1) != HAL_OK)
 542:Src/main.c    ****   {
 543:Src/main.c    ****     Error_Handler();
 544:Src/main.c    ****   }
 545:Src/main.c    ****   /* USER CODE BEGIN USART1_Init 2 */
 546:Src/main.c    **** 
 547:Src/main.c    ****   /* USER CODE END USART1_Init 2 */
 548:Src/main.c    **** 
 549:Src/main.c    **** }
 550:Src/main.c    **** 
 551:Src/main.c    **** /**
 552:Src/main.c    ****   * @brief USART2 Initialization Function
 553:Src/main.c    ****   * @param None
 554:Src/main.c    ****   * @retval None
 555:Src/main.c    ****   */
 556:Src/main.c    **** static void MX_USART2_UART_Init(void)
ARM GAS  /var/folders/4f/bvl6__ys6qq7h5n0wwljfc200000gn/T//cchNM4Pb.s 			page 12


 557:Src/main.c    **** {
 558:Src/main.c    **** 
 559:Src/main.c    ****   /* USER CODE BEGIN USART2_Init 0 */
 560:Src/main.c    **** 
 561:Src/main.c    ****   /* USER CODE END USART2_Init 0 */
 562:Src/main.c    **** 
 563:Src/main.c    ****   /* USER CODE BEGIN USART2_Init 1 */
 564:Src/main.c    **** 
 565:Src/main.c    ****   /* USER CODE END USART2_Init 1 */
 566:Src/main.c    ****   huart2.Instance = USART2;
 567:Src/main.c    ****   huart2.Init.BaudRate = 115200;
 568:Src/main.c    ****   huart2.Init.WordLength = UART_WORDLENGTH_8B;
 569:Src/main.c    ****   huart2.Init.StopBits = UART_STOPBITS_1;
 570:Src/main.c    ****   huart2.Init.Parity = UART_PARITY_NONE;
 571:Src/main.c    ****   huart2.Init.Mode = UART_MODE_TX_RX;
 572:Src/main.c    ****   huart2.Init.HwFlowCtl = UART_HWCONTROL_NONE;
 573:Src/main.c    ****   huart2.Init.OverSampling = UART_OVERSAMPLING_16;
 574:Src/main.c    ****   huart2.Init.OneBitSampling = UART_ONE_BIT_SAMPLE_DISABLE;
 575:Src/main.c    ****   huart2.AdvancedInit.AdvFeatureInit = UART_ADVFEATURE_NO_INIT;
 576:Src/main.c    ****   if (HAL_UART_Init(&huart2) != HAL_OK)
 577:Src/main.c    ****   {
 578:Src/main.c    ****     Error_Handler();
 579:Src/main.c    ****   }
 580:Src/main.c    ****   /* USER CODE BEGIN USART2_Init 2 */
 581:Src/main.c    **** 
 582:Src/main.c    ****   /* USER CODE END USART2_Init 2 */
 583:Src/main.c    **** 
 584:Src/main.c    **** }
 585:Src/main.c    **** 
 586:Src/main.c    **** /**
 587:Src/main.c    ****   * @brief USB_OTG_FS Initialization Function
 588:Src/main.c    ****   * @param None
 589:Src/main.c    ****   * @retval None
 590:Src/main.c    ****   */
 591:Src/main.c    **** static void MX_USB_OTG_FS_PCD_Init(void)
 592:Src/main.c    **** {
 593:Src/main.c    **** 
 594:Src/main.c    ****   /* USER CODE BEGIN USB_OTG_FS_Init 0 */
 595:Src/main.c    **** 
 596:Src/main.c    ****   /* USER CODE END USB_OTG_FS_Init 0 */
 597:Src/main.c    **** 
 598:Src/main.c    ****   /* USER CODE BEGIN USB_OTG_FS_Init 1 */
 599:Src/main.c    **** 
 600:Src/main.c    ****   /* USER CODE END USB_OTG_FS_Init 1 */
 601:Src/main.c    ****   hpcd_USB_OTG_FS.Instance = USB_OTG_FS;
 602:Src/main.c    ****   hpcd_USB_OTG_FS.Init.dev_endpoints = 6;
 603:Src/main.c    ****   hpcd_USB_OTG_FS.Init.speed = PCD_SPEED_FULL;
 604:Src/main.c    ****   hpcd_USB_OTG_FS.Init.dma_enable = DISABLE;
 605:Src/main.c    ****   hpcd_USB_OTG_FS.Init.phy_itface = PCD_PHY_EMBEDDED;
 606:Src/main.c    ****   hpcd_USB_OTG_FS.Init.Sof_enable = DISABLE;
 607:Src/main.c    ****   hpcd_USB_OTG_FS.Init.low_power_enable = DISABLE;
 608:Src/main.c    ****   hpcd_USB_OTG_FS.Init.lpm_enable = DISABLE;
 609:Src/main.c    ****   hpcd_USB_OTG_FS.Init.vbus_sensing_enable = DISABLE;
 610:Src/main.c    ****   hpcd_USB_OTG_FS.Init.use_dedicated_ep1 = DISABLE;
 611:Src/main.c    ****   if (HAL_PCD_Init(&hpcd_USB_OTG_FS) != HAL_OK)
 612:Src/main.c    ****   {
 613:Src/main.c    ****     Error_Handler();
ARM GAS  /var/folders/4f/bvl6__ys6qq7h5n0wwljfc200000gn/T//cchNM4Pb.s 			page 13


 614:Src/main.c    ****   }
 615:Src/main.c    ****   /* USER CODE BEGIN USB_OTG_FS_Init 2 */
 616:Src/main.c    **** 
 617:Src/main.c    ****   /* USER CODE END USB_OTG_FS_Init 2 */
 618:Src/main.c    **** 
 619:Src/main.c    **** }
 620:Src/main.c    **** 
 621:Src/main.c    **** /**
 622:Src/main.c    ****   * @brief GPIO Initialization Function
 623:Src/main.c    ****   * @param None
 624:Src/main.c    ****   * @retval None
 625:Src/main.c    ****   */
 626:Src/main.c    **** static void MX_GPIO_Init(void)
 627:Src/main.c    **** {
  75              		.loc 1 627 1 is_stmt 1 view -0
  76              		.cfi_startproc
  77              		@ args = 0, pretend = 0, frame = 56
  78              		@ frame_needed = 0, uses_anonymous_args = 0
  79 0000 F0B5     		push	{r4, r5, r6, r7, lr}
  80              	.LCFI0:
  81              		.cfi_def_cfa_offset 20
  82              		.cfi_offset 4, -20
  83              		.cfi_offset 5, -16
  84              		.cfi_offset 6, -12
  85              		.cfi_offset 7, -8
  86              		.cfi_offset 14, -4
  87 0002 8FB0     		sub	sp, sp, #60
  88              	.LCFI1:
  89              		.cfi_def_cfa_offset 80
 628:Src/main.c    ****   GPIO_InitTypeDef GPIO_InitStruct = {0};
  90              		.loc 1 628 3 view .LVU17
  91              		.loc 1 628 20 is_stmt 0 view .LVU18
  92 0004 0024     		movs	r4, #0
  93 0006 0994     		str	r4, [sp, #36]
  94 0008 0A94     		str	r4, [sp, #40]
  95 000a 0B94     		str	r4, [sp, #44]
  96 000c 0C94     		str	r4, [sp, #48]
  97 000e 0D94     		str	r4, [sp, #52]
 629:Src/main.c    **** 
 630:Src/main.c    ****   /* GPIO Ports Clock Enable */
 631:Src/main.c    ****   __HAL_RCC_GPIOE_CLK_ENABLE();
  98              		.loc 1 631 3 is_stmt 1 view .LVU19
  99              	.LBB36:
 100              		.loc 1 631 3 view .LVU20
 101              		.loc 1 631 3 view .LVU21
 102 0010 3C4B     		ldr	r3, .L6
 103 0012 1A6B     		ldr	r2, [r3, #48]
 104 0014 42F01002 		orr	r2, r2, #16
 105 0018 1A63     		str	r2, [r3, #48]
 106              		.loc 1 631 3 view .LVU22
 107 001a 1A6B     		ldr	r2, [r3, #48]
 108 001c 02F01002 		and	r2, r2, #16
 109 0020 0192     		str	r2, [sp, #4]
 110              		.loc 1 631 3 view .LVU23
 111 0022 019A     		ldr	r2, [sp, #4]
 112              	.LBE36:
 632:Src/main.c    ****   __HAL_RCC_GPIOC_CLK_ENABLE();
ARM GAS  /var/folders/4f/bvl6__ys6qq7h5n0wwljfc200000gn/T//cchNM4Pb.s 			page 14


 113              		.loc 1 632 3 view .LVU24
 114              	.LBB37:
 115              		.loc 1 632 3 view .LVU25
 116              		.loc 1 632 3 view .LVU26
 117 0024 1A6B     		ldr	r2, [r3, #48]
 118 0026 42F00402 		orr	r2, r2, #4
 119 002a 1A63     		str	r2, [r3, #48]
 120              		.loc 1 632 3 view .LVU27
 121 002c 1A6B     		ldr	r2, [r3, #48]
 122 002e 02F00402 		and	r2, r2, #4
 123 0032 0292     		str	r2, [sp, #8]
 124              		.loc 1 632 3 view .LVU28
 125 0034 029A     		ldr	r2, [sp, #8]
 126              	.LBE37:
 633:Src/main.c    ****   __HAL_RCC_GPIOF_CLK_ENABLE();
 127              		.loc 1 633 3 view .LVU29
 128              	.LBB38:
 129              		.loc 1 633 3 view .LVU30
 130              		.loc 1 633 3 view .LVU31
 131 0036 1A6B     		ldr	r2, [r3, #48]
 132 0038 42F02002 		orr	r2, r2, #32
 133 003c 1A63     		str	r2, [r3, #48]
 134              		.loc 1 633 3 view .LVU32
 135 003e 1A6B     		ldr	r2, [r3, #48]
 136 0040 02F02002 		and	r2, r2, #32
 137 0044 0392     		str	r2, [sp, #12]
 138              		.loc 1 633 3 view .LVU33
 139 0046 039A     		ldr	r2, [sp, #12]
 140              	.LBE38:
 634:Src/main.c    ****   __HAL_RCC_GPIOH_CLK_ENABLE();
 141              		.loc 1 634 3 view .LVU34
 142              	.LBB39:
 143              		.loc 1 634 3 view .LVU35
 144              		.loc 1 634 3 view .LVU36
 145 0048 1A6B     		ldr	r2, [r3, #48]
 146 004a 42F08002 		orr	r2, r2, #128
 147 004e 1A63     		str	r2, [r3, #48]
 148              		.loc 1 634 3 view .LVU37
 149 0050 1A6B     		ldr	r2, [r3, #48]
 150 0052 02F08002 		and	r2, r2, #128
 151 0056 0492     		str	r2, [sp, #16]
 152              		.loc 1 634 3 view .LVU38
 153 0058 049A     		ldr	r2, [sp, #16]
 154              	.LBE39:
 635:Src/main.c    ****   __HAL_RCC_GPIOA_CLK_ENABLE();
 155              		.loc 1 635 3 view .LVU39
 156              	.LBB40:
 157              		.loc 1 635 3 view .LVU40
 158              		.loc 1 635 3 view .LVU41
 159 005a 1A6B     		ldr	r2, [r3, #48]
 160 005c 42F00102 		orr	r2, r2, #1
 161 0060 1A63     		str	r2, [r3, #48]
 162              		.loc 1 635 3 view .LVU42
 163 0062 1A6B     		ldr	r2, [r3, #48]
 164 0064 02F00102 		and	r2, r2, #1
 165 0068 0592     		str	r2, [sp, #20]
 166              		.loc 1 635 3 view .LVU43
ARM GAS  /var/folders/4f/bvl6__ys6qq7h5n0wwljfc200000gn/T//cchNM4Pb.s 			page 15


 167 006a 059A     		ldr	r2, [sp, #20]
 168              	.LBE40:
 636:Src/main.c    ****   __HAL_RCC_GPIOB_CLK_ENABLE();
 169              		.loc 1 636 3 view .LVU44
 170              	.LBB41:
 171              		.loc 1 636 3 view .LVU45
 172              		.loc 1 636 3 view .LVU46
 173 006c 1A6B     		ldr	r2, [r3, #48]
 174 006e 42F00202 		orr	r2, r2, #2
 175 0072 1A63     		str	r2, [r3, #48]
 176              		.loc 1 636 3 view .LVU47
 177 0074 1A6B     		ldr	r2, [r3, #48]
 178 0076 02F00202 		and	r2, r2, #2
 179 007a 0692     		str	r2, [sp, #24]
 180              		.loc 1 636 3 view .LVU48
 181 007c 069A     		ldr	r2, [sp, #24]
 182              	.LBE41:
 637:Src/main.c    ****   __HAL_RCC_GPIOD_CLK_ENABLE();
 183              		.loc 1 637 3 view .LVU49
 184              	.LBB42:
 185              		.loc 1 637 3 view .LVU50
 186              		.loc 1 637 3 view .LVU51
 187 007e 1A6B     		ldr	r2, [r3, #48]
 188 0080 42F00802 		orr	r2, r2, #8
 189 0084 1A63     		str	r2, [r3, #48]
 190              		.loc 1 637 3 view .LVU52
 191 0086 1A6B     		ldr	r2, [r3, #48]
 192 0088 02F00802 		and	r2, r2, #8
 193 008c 0792     		str	r2, [sp, #28]
 194              		.loc 1 637 3 view .LVU53
 195 008e 079A     		ldr	r2, [sp, #28]
 196              	.LBE42:
 638:Src/main.c    ****   __HAL_RCC_GPIOG_CLK_ENABLE();
 197              		.loc 1 638 3 view .LVU54
 198              	.LBB43:
 199              		.loc 1 638 3 view .LVU55
 200              		.loc 1 638 3 view .LVU56
 201 0090 1A6B     		ldr	r2, [r3, #48]
 202 0092 42F04002 		orr	r2, r2, #64
 203 0096 1A63     		str	r2, [r3, #48]
 204              		.loc 1 638 3 view .LVU57
 205 0098 1B6B     		ldr	r3, [r3, #48]
 206 009a 03F04003 		and	r3, r3, #64
 207 009e 0893     		str	r3, [sp, #32]
 208              		.loc 1 638 3 view .LVU58
 209 00a0 089B     		ldr	r3, [sp, #32]
 210              	.LBE43:
 639:Src/main.c    **** 
 640:Src/main.c    ****   /*Configure GPIO pin Output Level */
 641:Src/main.c    ****   HAL_GPIO_WritePin(GPIOF, DEBUG_LED_0_Pin|LED_1_Pin|LED_2_Pin|LED_3_Pin 
 211              		.loc 1 641 3 view .LVU59
 212 00a2 194F     		ldr	r7, .L6+4
 213 00a4 2246     		mov	r2, r4
 214 00a6 2F21     		movs	r1, #47
 215 00a8 3846     		mov	r0, r7
 216 00aa FFF7FEFF 		bl	HAL_GPIO_WritePin
 217              	.LVL0:
ARM GAS  /var/folders/4f/bvl6__ys6qq7h5n0wwljfc200000gn/T//cchNM4Pb.s 			page 16


 642:Src/main.c    ****                           |FLASH_NRESET_Pin, GPIO_PIN_RESET);
 643:Src/main.c    **** 
 644:Src/main.c    ****   /*Configure GPIO pin Output Level */
 645:Src/main.c    ****   HAL_GPIO_WritePin(ADC_nRESET_GPIO_Port, ADC_nRESET_Pin, GPIO_PIN_SET);
 218              		.loc 1 645 3 view .LVU60
 219 00ae 174E     		ldr	r6, .L6+8
 220 00b0 0122     		movs	r2, #1
 221 00b2 1146     		mov	r1, r2
 222 00b4 3046     		mov	r0, r6
 223 00b6 FFF7FEFF 		bl	HAL_GPIO_WritePin
 224              	.LVL1:
 646:Src/main.c    **** 
 647:Src/main.c    ****   /*Configure GPIO pins : DEBUG_LED_0_Pin LED_1_Pin LED_2_Pin LED_3_Pin 
 648:Src/main.c    ****                            FLASH_NRESET_Pin */
 649:Src/main.c    ****   GPIO_InitStruct.Pin = DEBUG_LED_0_Pin|LED_1_Pin|LED_2_Pin|LED_3_Pin 
 225              		.loc 1 649 3 view .LVU61
 226              		.loc 1 649 23 is_stmt 0 view .LVU62
 227 00ba 2F23     		movs	r3, #47
 228 00bc 0993     		str	r3, [sp, #36]
 650:Src/main.c    ****                           |FLASH_NRESET_Pin;
 651:Src/main.c    ****   GPIO_InitStruct.Mode = GPIO_MODE_OUTPUT_PP;
 229              		.loc 1 651 3 is_stmt 1 view .LVU63
 230              		.loc 1 651 24 is_stmt 0 view .LVU64
 231 00be 0125     		movs	r5, #1
 232 00c0 0A95     		str	r5, [sp, #40]
 652:Src/main.c    ****   GPIO_InitStruct.Pull = GPIO_NOPULL;
 233              		.loc 1 652 3 is_stmt 1 view .LVU65
 234              		.loc 1 652 24 is_stmt 0 view .LVU66
 235 00c2 0B94     		str	r4, [sp, #44]
 653:Src/main.c    ****   GPIO_InitStruct.Speed = GPIO_SPEED_FREQ_LOW;
 236              		.loc 1 653 3 is_stmt 1 view .LVU67
 237              		.loc 1 653 25 is_stmt 0 view .LVU68
 238 00c4 0C94     		str	r4, [sp, #48]
 654:Src/main.c    ****   HAL_GPIO_Init(GPIOF, &GPIO_InitStruct);
 239              		.loc 1 654 3 is_stmt 1 view .LVU69
 240 00c6 09A9     		add	r1, sp, #36
 241 00c8 3846     		mov	r0, r7
 242 00ca FFF7FEFF 		bl	HAL_GPIO_Init
 243              	.LVL2:
 655:Src/main.c    **** 
 656:Src/main.c    ****   /*Configure GPIO pins : INST0_CLIPPING_Pin INST1_CLIPPING_Pin */
 657:Src/main.c    ****   GPIO_InitStruct.Pin = INST0_CLIPPING_Pin|INST1_CLIPPING_Pin;
 244              		.loc 1 657 3 view .LVU70
 245              		.loc 1 657 23 is_stmt 0 view .LVU71
 246 00ce 0C23     		movs	r3, #12
 247 00d0 0993     		str	r3, [sp, #36]
 658:Src/main.c    ****   GPIO_InitStruct.Mode = GPIO_MODE_INPUT;
 248              		.loc 1 658 3 is_stmt 1 view .LVU72
 249              		.loc 1 658 24 is_stmt 0 view .LVU73
 250 00d2 0A94     		str	r4, [sp, #40]
 659:Src/main.c    ****   GPIO_InitStruct.Pull = GPIO_NOPULL;
 251              		.loc 1 659 3 is_stmt 1 view .LVU74
 252              		.loc 1 659 24 is_stmt 0 view .LVU75
 253 00d4 0B94     		str	r4, [sp, #44]
 660:Src/main.c    ****   HAL_GPIO_Init(GPIOH, &GPIO_InitStruct);
 254              		.loc 1 660 3 is_stmt 1 view .LVU76
 255 00d6 09A9     		add	r1, sp, #36
ARM GAS  /var/folders/4f/bvl6__ys6qq7h5n0wwljfc200000gn/T//cchNM4Pb.s 			page 17


 256 00d8 0D48     		ldr	r0, .L6+12
 257 00da FFF7FEFF 		bl	HAL_GPIO_Init
 258              	.LVL3:
 661:Src/main.c    **** 
 662:Src/main.c    ****   /*Configure GPIO pin : ADC_nRESET_Pin */
 663:Src/main.c    ****   GPIO_InitStruct.Pin = ADC_nRESET_Pin;
 259              		.loc 1 663 3 view .LVU77
 260              		.loc 1 663 23 is_stmt 0 view .LVU78
 261 00de 0995     		str	r5, [sp, #36]
 664:Src/main.c    ****   GPIO_InitStruct.Mode = GPIO_MODE_OUTPUT_PP;
 262              		.loc 1 664 3 is_stmt 1 view .LVU79
 263              		.loc 1 664 24 is_stmt 0 view .LVU80
 264 00e0 0A95     		str	r5, [sp, #40]
 665:Src/main.c    ****   GPIO_InitStruct.Pull = GPIO_NOPULL;
 265              		.loc 1 665 3 is_stmt 1 view .LVU81
 266              		.loc 1 665 24 is_stmt 0 view .LVU82
 267 00e2 0B94     		str	r4, [sp, #44]
 666:Src/main.c    ****   GPIO_InitStruct.Speed = GPIO_SPEED_FREQ_LOW;
 268              		.loc 1 666 3 is_stmt 1 view .LVU83
 269              		.loc 1 666 25 is_stmt 0 view .LVU84
 270 00e4 0C94     		str	r4, [sp, #48]
 667:Src/main.c    ****   HAL_GPIO_Init(ADC_nRESET_GPIO_Port, &GPIO_InitStruct);
 271              		.loc 1 667 3 is_stmt 1 view .LVU85
 272 00e6 09A9     		add	r1, sp, #36
 273 00e8 3046     		mov	r0, r6
 274 00ea FFF7FEFF 		bl	HAL_GPIO_Init
 275              	.LVL4:
 668:Src/main.c    **** 
 669:Src/main.c    ****   /*Configure GPIO pins : SD_DETECT_Pin ESP32_IO25_STM32_SD_ACCESS_EN_Pin */
 670:Src/main.c    ****   GPIO_InitStruct.Pin = SD_DETECT_Pin|ESP32_IO25_STM32_SD_ACCESS_EN_Pin;
 276              		.loc 1 670 3 view .LVU86
 277              		.loc 1 670 23 is_stmt 0 view .LVU87
 278 00ee 4FF4C043 		mov	r3, #24576
 279 00f2 0993     		str	r3, [sp, #36]
 671:Src/main.c    ****   GPIO_InitStruct.Mode = GPIO_MODE_INPUT;
 280              		.loc 1 671 3 is_stmt 1 view .LVU88
 281              		.loc 1 671 24 is_stmt 0 view .LVU89
 282 00f4 0A94     		str	r4, [sp, #40]
 672:Src/main.c    ****   GPIO_InitStruct.Pull = GPIO_NOPULL;
 283              		.loc 1 672 3 is_stmt 1 view .LVU90
 284              		.loc 1 672 24 is_stmt 0 view .LVU91
 285 00f6 0B94     		str	r4, [sp, #44]
 673:Src/main.c    ****   HAL_GPIO_Init(GPIOG, &GPIO_InitStruct);
 286              		.loc 1 673 3 is_stmt 1 view .LVU92
 287 00f8 09A9     		add	r1, sp, #36
 288 00fa 0648     		ldr	r0, .L6+16
 289 00fc FFF7FEFF 		bl	HAL_GPIO_Init
 290              	.LVL5:
 674:Src/main.c    **** 
 675:Src/main.c    **** }
 291              		.loc 1 675 1 is_stmt 0 view .LVU93
 292 0100 0FB0     		add	sp, sp, #60
 293              	.LCFI2:
 294              		.cfi_def_cfa_offset 20
 295              		@ sp needed
 296 0102 F0BD     		pop	{r4, r5, r6, r7, pc}
 297              	.L7:
ARM GAS  /var/folders/4f/bvl6__ys6qq7h5n0wwljfc200000gn/T//cchNM4Pb.s 			page 18


 298              		.align	2
 299              	.L6:
 300 0104 00380240 		.word	1073887232
 301 0108 00140240 		.word	1073878016
 302 010c 00040240 		.word	1073873920
 303 0110 001C0240 		.word	1073880064
 304 0114 00180240 		.word	1073879040
 305              		.cfi_endproc
 306              	.LFE154:
 308              		.section	.text.MX_I2S1_Init,"ax",%progbits
 309              		.align	1
 310              		.syntax unified
 311              		.thumb
 312              		.thumb_func
 313              		.fpu fpv5-d16
 315              	MX_I2S1_Init:
 316              	.LFB147:
 386:Src/main.c    **** 
 317              		.loc 1 386 1 is_stmt 1 view -0
 318              		.cfi_startproc
 319              		@ args = 0, pretend = 0, frame = 0
 320              		@ frame_needed = 0, uses_anonymous_args = 0
 321 0000 08B5     		push	{r3, lr}
 322              	.LCFI3:
 323              		.cfi_def_cfa_offset 8
 324              		.cfi_offset 3, -8
 325              		.cfi_offset 14, -4
 395:Src/main.c    ****   hi2s1.Init.Mode = I2S_MODE_MASTER_RX;
 326              		.loc 1 395 3 view .LVU95
 395:Src/main.c    ****   hi2s1.Init.Mode = I2S_MODE_MASTER_RX;
 327              		.loc 1 395 18 is_stmt 0 view .LVU96
 328 0002 0B48     		ldr	r0, .L10
 329 0004 0B4B     		ldr	r3, .L10+4
 330 0006 0360     		str	r3, [r0]
 396:Src/main.c    ****   hi2s1.Init.Standard = I2S_STANDARD_PHILIPS;
 331              		.loc 1 396 3 is_stmt 1 view .LVU97
 396:Src/main.c    ****   hi2s1.Init.Standard = I2S_STANDARD_PHILIPS;
 332              		.loc 1 396 19 is_stmt 0 view .LVU98
 333 0008 4FF44073 		mov	r3, #768
 334 000c 4360     		str	r3, [r0, #4]
 397:Src/main.c    ****   hi2s1.Init.DataFormat = I2S_DATAFORMAT_24B;
 335              		.loc 1 397 3 is_stmt 1 view .LVU99
 397:Src/main.c    ****   hi2s1.Init.DataFormat = I2S_DATAFORMAT_24B;
 336              		.loc 1 397 23 is_stmt 0 view .LVU100
 337 000e 0023     		movs	r3, #0
 338 0010 8360     		str	r3, [r0, #8]
 398:Src/main.c    ****   hi2s1.Init.MCLKOutput = I2S_MCLKOUTPUT_ENABLE;
 339              		.loc 1 398 3 is_stmt 1 view .LVU101
 398:Src/main.c    ****   hi2s1.Init.MCLKOutput = I2S_MCLKOUTPUT_ENABLE;
 340              		.loc 1 398 25 is_stmt 0 view .LVU102
 341 0012 0322     		movs	r2, #3
 342 0014 C260     		str	r2, [r0, #12]
 399:Src/main.c    ****   hi2s1.Init.AudioFreq = I2S_AUDIOFREQ_44K;
 343              		.loc 1 399 3 is_stmt 1 view .LVU103
 399:Src/main.c    ****   hi2s1.Init.AudioFreq = I2S_AUDIOFREQ_44K;
 344              		.loc 1 399 25 is_stmt 0 view .LVU104
 345 0016 4FF40072 		mov	r2, #512
ARM GAS  /var/folders/4f/bvl6__ys6qq7h5n0wwljfc200000gn/T//cchNM4Pb.s 			page 19


 346 001a 0261     		str	r2, [r0, #16]
 400:Src/main.c    ****   hi2s1.Init.CPOL = I2S_CPOL_LOW;
 347              		.loc 1 400 3 is_stmt 1 view .LVU105
 400:Src/main.c    ****   hi2s1.Init.CPOL = I2S_CPOL_LOW;
 348              		.loc 1 400 24 is_stmt 0 view .LVU106
 349 001c 4AF64442 		movw	r2, #44100
 350 0020 4261     		str	r2, [r0, #20]
 401:Src/main.c    ****   hi2s1.Init.ClockSource = I2S_CLOCK_PLL;
 351              		.loc 1 401 3 is_stmt 1 view .LVU107
 401:Src/main.c    ****   hi2s1.Init.ClockSource = I2S_CLOCK_PLL;
 352              		.loc 1 401 19 is_stmt 0 view .LVU108
 353 0022 8361     		str	r3, [r0, #24]
 402:Src/main.c    ****   if (HAL_I2S_Init(&hi2s1) != HAL_OK)
 354              		.loc 1 402 3 is_stmt 1 view .LVU109
 402:Src/main.c    ****   if (HAL_I2S_Init(&hi2s1) != HAL_OK)
 355              		.loc 1 402 26 is_stmt 0 view .LVU110
 356 0024 0223     		movs	r3, #2
 357 0026 C361     		str	r3, [r0, #28]
 403:Src/main.c    ****   {
 358              		.loc 1 403 3 is_stmt 1 view .LVU111
 403:Src/main.c    ****   {
 359              		.loc 1 403 7 is_stmt 0 view .LVU112
 360 0028 FFF7FEFF 		bl	HAL_I2S_Init
 361              	.LVL6:
 411:Src/main.c    **** 
 362              		.loc 1 411 1 view .LVU113
 363 002c 08BD     		pop	{r3, pc}
 364              	.L11:
 365 002e 00BF     		.align	2
 366              	.L10:
 367 0030 00000000 		.word	hi2s1
 368 0034 00300140 		.word	1073819648
 369              		.cfi_endproc
 370              	.LFE147:
 372              		.section	.text.scan_files,"ax",%progbits
 373              		.align	1
 374              		.global	scan_files
 375              		.syntax unified
 376              		.thumb
 377              		.thumb_func
 378              		.fpu fpv5-d16
 380              	scan_files:
 381              	.LVL7:
 382              	.LFB145:
 290:Src/main.c    ****     FRESULT res;
 383              		.loc 1 290 1 is_stmt 1 view -0
 384              		.cfi_startproc
 385              		@ args = 0, pretend = 0, frame = 48
 386              		@ frame_needed = 0, uses_anonymous_args = 0
 290:Src/main.c    ****     FRESULT res;
 387              		.loc 1 290 1 is_stmt 0 view .LVU115
 388 0000 10B5     		push	{r4, lr}
 389              	.LCFI4:
 390              		.cfi_def_cfa_offset 8
 391              		.cfi_offset 4, -8
 392              		.cfi_offset 14, -4
 393 0002 8CB0     		sub	sp, sp, #48
ARM GAS  /var/folders/4f/bvl6__ys6qq7h5n0wwljfc200000gn/T//cchNM4Pb.s 			page 20


 394              	.LCFI5:
 395              		.cfi_def_cfa_offset 56
 291:Src/main.c    ****     DIR dir;
 396              		.loc 1 291 5 is_stmt 1 view .LVU116
 292:Src/main.c    ****     UINT i;
 397              		.loc 1 292 5 view .LVU117
 293:Src/main.c    ****     static FILINFO fno;
 398              		.loc 1 293 5 view .LVU118
 294:Src/main.c    **** 
 399              		.loc 1 294 5 view .LVU119
 297:Src/main.c    ****     if (res == FR_OK) {
 400              		.loc 1 297 5 view .LVU120
 297:Src/main.c    ****     if (res == FR_OK) {
 401              		.loc 1 297 11 is_stmt 0 view .LVU121
 402 0004 0146     		mov	r1, r0
 403 0006 6846     		mov	r0, sp
 404              	.LVL8:
 297:Src/main.c    ****     if (res == FR_OK) {
 405              		.loc 1 297 11 view .LVU122
 406 0008 FFF7FEFF 		bl	f_opendir
 407              	.LVL9:
 298:Src/main.c    ****         for (;;) {
 408              		.loc 1 298 5 is_stmt 1 view .LVU123
 298:Src/main.c    ****         for (;;) {
 409              		.loc 1 298 8 is_stmt 0 view .LVU124
 410 000c 0446     		mov	r4, r0
 411 000e 98B9     		cbnz	r0, .L13
 412              	.LVL10:
 413              	.L15:
 299:Src/main.c    ****             res = f_readdir(&dir, &fno);                   /* Read a directory item */
 414              		.loc 1 299 9 is_stmt 1 view .LVU125
 300:Src/main.c    ****             if (res != FR_OK || fno.fname[0] == 0) break;  /* Break on error or end of dir */
 415              		.loc 1 300 13 view .LVU126
 300:Src/main.c    ****             if (res != FR_OK || fno.fname[0] == 0) break;  /* Break on error or end of dir */
 416              		.loc 1 300 19 is_stmt 0 view .LVU127
 417 0010 0B49     		ldr	r1, .L17
 418 0012 6846     		mov	r0, sp
 419 0014 FFF7FEFF 		bl	f_readdir
 420              	.LVL11:
 301:Src/main.c    ****             // if (fno.fattrib & AM_DIR) {                    /* It is a directory */
 421              		.loc 1 301 13 is_stmt 1 view .LVU128
 301:Src/main.c    ****             // if (fno.fattrib & AM_DIR) {                    /* It is a directory */
 422              		.loc 1 301 16 is_stmt 0 view .LVU129
 423 0018 0446     		mov	r4, r0
 424 001a 50B9     		cbnz	r0, .L14
 301:Src/main.c    ****             // if (fno.fattrib & AM_DIR) {                    /* It is a directory */
 425              		.loc 1 301 42 discriminator 1 view .LVU130
 426 001c 084B     		ldr	r3, .L17
 427 001e 5B7A     		ldrb	r3, [r3, #9]	@ zero_extendqisi2
 301:Src/main.c    ****             // if (fno.fattrib & AM_DIR) {                    /* It is a directory */
 428              		.loc 1 301 30 discriminator 1 view .LVU131
 429 0020 3BB1     		cbz	r3, .L14
 310:Src/main.c    ****             SEGGER_RTT_WriteString(0, "\r\n");
 430              		.loc 1 310 13 is_stmt 1 view .LVU132
 431 0022 0849     		ldr	r1, .L17+4
 432 0024 FFF7FEFF 		bl	SEGGER_RTT_WriteString
 433              	.LVL12:
ARM GAS  /var/folders/4f/bvl6__ys6qq7h5n0wwljfc200000gn/T//cchNM4Pb.s 			page 21


 311:Src/main.c    ****             //}
 434              		.loc 1 311 13 view .LVU133
 435 0028 0749     		ldr	r1, .L17+8
 436 002a 0020     		movs	r0, #0
 437 002c FFF7FEFF 		bl	SEGGER_RTT_WriteString
 438              	.LVL13:
 300:Src/main.c    ****             if (res != FR_OK || fno.fname[0] == 0) break;  /* Break on error or end of dir */
 439              		.loc 1 300 17 is_stmt 0 view .LVU134
 440 0030 EEE7     		b	.L15
 441              	.LVL14:
 442              	.L14:
 314:Src/main.c    ****     }
 443              		.loc 1 314 9 is_stmt 1 view .LVU135
 444 0032 6846     		mov	r0, sp
 445              	.LVL15:
 314:Src/main.c    ****     }
 446              		.loc 1 314 9 is_stmt 0 view .LVU136
 447 0034 FFF7FEFF 		bl	f_closedir
 448              	.LVL16:
 449              	.L13:
 317:Src/main.c    **** }
 450              		.loc 1 317 5 is_stmt 1 view .LVU137
 318:Src/main.c    **** 
 451              		.loc 1 318 1 is_stmt 0 view .LVU138
 452 0038 2046     		mov	r0, r4
 453 003a 0CB0     		add	sp, sp, #48
 454              	.LCFI6:
 455              		.cfi_def_cfa_offset 8
 456              		@ sp needed
 457 003c 10BD     		pop	{r4, pc}
 458              	.LVL17:
 459              	.L18:
 318:Src/main.c    **** 
 460              		.loc 1 318 1 view .LVU139
 461 003e 00BF     		.align	2
 462              	.L17:
 463 0040 00000000 		.word	.LANCHOR0
 464 0044 09000000 		.word	.LANCHOR0+9
 465 0048 00000000 		.word	.LC0
 466              		.cfi_endproc
 467              	.LFE145:
 469              		.section	.text.SystemClock_Config,"ax",%progbits
 470              		.align	1
 471              		.global	SystemClock_Config
 472              		.syntax unified
 473              		.thumb
 474              		.thumb_func
 475              		.fpu fpv5-d16
 477              	SystemClock_Config:
 478              	.LFB146:
 325:Src/main.c    ****   RCC_OscInitTypeDef RCC_OscInitStruct = {0};
 479              		.loc 1 325 1 is_stmt 1 view -0
 480              		.cfi_startproc
 481              		@ args = 0, pretend = 0, frame = 224
 482              		@ frame_needed = 0, uses_anonymous_args = 0
 483 0000 F0B5     		push	{r4, r5, r6, r7, lr}
 484              	.LCFI7:
ARM GAS  /var/folders/4f/bvl6__ys6qq7h5n0wwljfc200000gn/T//cchNM4Pb.s 			page 22


 485              		.cfi_def_cfa_offset 20
 486              		.cfi_offset 4, -20
 487              		.cfi_offset 5, -16
 488              		.cfi_offset 6, -12
 489              		.cfi_offset 7, -8
 490              		.cfi_offset 14, -4
 491 0002 B9B0     		sub	sp, sp, #228
 492              	.LCFI8:
 493              		.cfi_def_cfa_offset 248
 326:Src/main.c    ****   RCC_ClkInitTypeDef RCC_ClkInitStruct = {0};
 494              		.loc 1 326 3 view .LVU141
 326:Src/main.c    ****   RCC_ClkInitTypeDef RCC_ClkInitStruct = {0};
 495              		.loc 1 326 22 is_stmt 0 view .LVU142
 496 0004 3422     		movs	r2, #52
 497 0006 0021     		movs	r1, #0
 498 0008 2BA8     		add	r0, sp, #172
 499 000a FFF7FEFF 		bl	memset
 500              	.LVL18:
 327:Src/main.c    ****   RCC_PeriphCLKInitTypeDef PeriphClkInitStruct = {0};
 501              		.loc 1 327 3 is_stmt 1 view .LVU143
 327:Src/main.c    ****   RCC_PeriphCLKInitTypeDef PeriphClkInitStruct = {0};
 502              		.loc 1 327 22 is_stmt 0 view .LVU144
 503 000e 0024     		movs	r4, #0
 504 0010 2694     		str	r4, [sp, #152]
 505 0012 2794     		str	r4, [sp, #156]
 506 0014 2894     		str	r4, [sp, #160]
 507 0016 2994     		str	r4, [sp, #164]
 508 0018 2A94     		str	r4, [sp, #168]
 328:Src/main.c    **** 
 509              		.loc 1 328 3 is_stmt 1 view .LVU145
 328:Src/main.c    **** 
 510              		.loc 1 328 28 is_stmt 0 view .LVU146
 511 001a 9022     		movs	r2, #144
 512 001c 2146     		mov	r1, r4
 513 001e 02A8     		add	r0, sp, #8
 514 0020 FFF7FEFF 		bl	memset
 515              	.LVL19:
 332:Src/main.c    ****   __HAL_PWR_VOLTAGESCALING_CONFIG(PWR_REGULATOR_VOLTAGE_SCALE3);
 516              		.loc 1 332 3 is_stmt 1 view .LVU147
 517              	.LBB44:
 332:Src/main.c    ****   __HAL_PWR_VOLTAGESCALING_CONFIG(PWR_REGULATOR_VOLTAGE_SCALE3);
 518              		.loc 1 332 3 view .LVU148
 332:Src/main.c    ****   __HAL_PWR_VOLTAGESCALING_CONFIG(PWR_REGULATOR_VOLTAGE_SCALE3);
 519              		.loc 1 332 3 view .LVU149
 520 0024 244B     		ldr	r3, .L21
 521 0026 1A6C     		ldr	r2, [r3, #64]
 522 0028 42F08052 		orr	r2, r2, #268435456
 523 002c 1A64     		str	r2, [r3, #64]
 332:Src/main.c    ****   __HAL_PWR_VOLTAGESCALING_CONFIG(PWR_REGULATOR_VOLTAGE_SCALE3);
 524              		.loc 1 332 3 view .LVU150
 525 002e 1B6C     		ldr	r3, [r3, #64]
 526 0030 03F08053 		and	r3, r3, #268435456
 527 0034 0093     		str	r3, [sp]
 332:Src/main.c    ****   __HAL_PWR_VOLTAGESCALING_CONFIG(PWR_REGULATOR_VOLTAGE_SCALE3);
 528              		.loc 1 332 3 view .LVU151
 529 0036 009B     		ldr	r3, [sp]
 530              	.LBE44:
ARM GAS  /var/folders/4f/bvl6__ys6qq7h5n0wwljfc200000gn/T//cchNM4Pb.s 			page 23


 333:Src/main.c    ****   /** Initializes the CPU, AHB and APB busses clocks 
 531              		.loc 1 333 3 view .LVU152
 532              	.LBB45:
 333:Src/main.c    ****   /** Initializes the CPU, AHB and APB busses clocks 
 533              		.loc 1 333 3 view .LVU153
 333:Src/main.c    ****   /** Initializes the CPU, AHB and APB busses clocks 
 534              		.loc 1 333 3 view .LVU154
 535 0038 204A     		ldr	r2, .L21+4
 536 003a 1368     		ldr	r3, [r2]
 537 003c 23F44043 		bic	r3, r3, #49152
 538 0040 43F48043 		orr	r3, r3, #16384
 539 0044 1360     		str	r3, [r2]
 333:Src/main.c    ****   /** Initializes the CPU, AHB and APB busses clocks 
 540              		.loc 1 333 3 view .LVU155
 541 0046 1368     		ldr	r3, [r2]
 542 0048 03F44043 		and	r3, r3, #49152
 543 004c 0193     		str	r3, [sp, #4]
 333:Src/main.c    ****   /** Initializes the CPU, AHB and APB busses clocks 
 544              		.loc 1 333 3 view .LVU156
 545 004e 019B     		ldr	r3, [sp, #4]
 546              	.LBE45:
 336:Src/main.c    ****   RCC_OscInitStruct.HSEState = RCC_HSE_ON;
 547              		.loc 1 336 3 view .LVU157
 336:Src/main.c    ****   RCC_OscInitStruct.HSEState = RCC_HSE_ON;
 548              		.loc 1 336 36 is_stmt 0 view .LVU158
 549 0050 0126     		movs	r6, #1
 550 0052 2B96     		str	r6, [sp, #172]
 337:Src/main.c    ****   RCC_OscInitStruct.PLL.PLLState = RCC_PLL_ON;
 551              		.loc 1 337 3 is_stmt 1 view .LVU159
 337:Src/main.c    ****   RCC_OscInitStruct.PLL.PLLState = RCC_PLL_ON;
 552              		.loc 1 337 30 is_stmt 0 view .LVU160
 553 0054 4FF48033 		mov	r3, #65536
 554 0058 2C93     		str	r3, [sp, #176]
 338:Src/main.c    ****   RCC_OscInitStruct.PLL.PLLSource = RCC_PLLSOURCE_HSE;
 555              		.loc 1 338 3 is_stmt 1 view .LVU161
 338:Src/main.c    ****   RCC_OscInitStruct.PLL.PLLSource = RCC_PLLSOURCE_HSE;
 556              		.loc 1 338 34 is_stmt 0 view .LVU162
 557 005a 0225     		movs	r5, #2
 558 005c 3195     		str	r5, [sp, #196]
 339:Src/main.c    ****   RCC_OscInitStruct.PLL.PLLM = 25;
 559              		.loc 1 339 3 is_stmt 1 view .LVU163
 339:Src/main.c    ****   RCC_OscInitStruct.PLL.PLLM = 25;
 560              		.loc 1 339 35 is_stmt 0 view .LVU164
 561 005e 4FF48003 		mov	r3, #4194304
 562 0062 3293     		str	r3, [sp, #200]
 340:Src/main.c    ****   RCC_OscInitStruct.PLL.PLLN = 192;
 563              		.loc 1 340 3 is_stmt 1 view .LVU165
 340:Src/main.c    ****   RCC_OscInitStruct.PLL.PLLN = 192;
 564              		.loc 1 340 30 is_stmt 0 view .LVU166
 565 0064 1923     		movs	r3, #25
 566 0066 3393     		str	r3, [sp, #204]
 341:Src/main.c    ****   RCC_OscInitStruct.PLL.PLLP = RCC_PLLP_DIV4;
 567              		.loc 1 341 3 is_stmt 1 view .LVU167
 341:Src/main.c    ****   RCC_OscInitStruct.PLL.PLLP = RCC_PLLP_DIV4;
 568              		.loc 1 341 30 is_stmt 0 view .LVU168
 569 0068 C027     		movs	r7, #192
 570 006a 3497     		str	r7, [sp, #208]
ARM GAS  /var/folders/4f/bvl6__ys6qq7h5n0wwljfc200000gn/T//cchNM4Pb.s 			page 24


 342:Src/main.c    ****   RCC_OscInitStruct.PLL.PLLQ = 4;
 571              		.loc 1 342 3 is_stmt 1 view .LVU169
 342:Src/main.c    ****   RCC_OscInitStruct.PLL.PLLQ = 4;
 572              		.loc 1 342 30 is_stmt 0 view .LVU170
 573 006c 0423     		movs	r3, #4
 574 006e 3593     		str	r3, [sp, #212]
 343:Src/main.c    ****   if (HAL_RCC_OscConfig(&RCC_OscInitStruct) != HAL_OK)
 575              		.loc 1 343 3 is_stmt 1 view .LVU171
 343:Src/main.c    ****   if (HAL_RCC_OscConfig(&RCC_OscInitStruct) != HAL_OK)
 576              		.loc 1 343 30 is_stmt 0 view .LVU172
 577 0070 3693     		str	r3, [sp, #216]
 344:Src/main.c    ****   {
 578              		.loc 1 344 3 is_stmt 1 view .LVU173
 344:Src/main.c    ****   {
 579              		.loc 1 344 7 is_stmt 0 view .LVU174
 580 0072 2BA8     		add	r0, sp, #172
 581 0074 FFF7FEFF 		bl	HAL_RCC_OscConfig
 582              	.LVL20:
 350:Src/main.c    ****                               |RCC_CLOCKTYPE_PCLK1|RCC_CLOCKTYPE_PCLK2;
 583              		.loc 1 350 3 is_stmt 1 view .LVU175
 350:Src/main.c    ****                               |RCC_CLOCKTYPE_PCLK1|RCC_CLOCKTYPE_PCLK2;
 584              		.loc 1 350 31 is_stmt 0 view .LVU176
 585 0078 0F23     		movs	r3, #15
 586 007a 2693     		str	r3, [sp, #152]
 352:Src/main.c    ****   RCC_ClkInitStruct.AHBCLKDivider = RCC_SYSCLK_DIV1;
 587              		.loc 1 352 3 is_stmt 1 view .LVU177
 352:Src/main.c    ****   RCC_ClkInitStruct.AHBCLKDivider = RCC_SYSCLK_DIV1;
 588              		.loc 1 352 34 is_stmt 0 view .LVU178
 589 007c 2795     		str	r5, [sp, #156]
 353:Src/main.c    ****   RCC_ClkInitStruct.APB1CLKDivider = RCC_HCLK_DIV8;
 590              		.loc 1 353 3 is_stmt 1 view .LVU179
 353:Src/main.c    ****   RCC_ClkInitStruct.APB1CLKDivider = RCC_HCLK_DIV8;
 591              		.loc 1 353 35 is_stmt 0 view .LVU180
 592 007e 2894     		str	r4, [sp, #160]
 354:Src/main.c    ****   RCC_ClkInitStruct.APB2CLKDivider = RCC_HCLK_DIV8;
 593              		.loc 1 354 3 is_stmt 1 view .LVU181
 354:Src/main.c    ****   RCC_ClkInitStruct.APB2CLKDivider = RCC_HCLK_DIV8;
 594              		.loc 1 354 36 is_stmt 0 view .LVU182
 595 0080 4FF4C053 		mov	r3, #6144
 596 0084 2993     		str	r3, [sp, #164]
 355:Src/main.c    **** 
 597              		.loc 1 355 3 is_stmt 1 view .LVU183
 355:Src/main.c    **** 
 598              		.loc 1 355 36 is_stmt 0 view .LVU184
 599 0086 2A93     		str	r3, [sp, #168]
 357:Src/main.c    ****   {
 600              		.loc 1 357 3 is_stmt 1 view .LVU185
 357:Src/main.c    ****   {
 601              		.loc 1 357 7 is_stmt 0 view .LVU186
 602 0088 3146     		mov	r1, r6
 603 008a 26A8     		add	r0, sp, #152
 604 008c FFF7FEFF 		bl	HAL_RCC_ClockConfig
 605              	.LVL21:
 361:Src/main.c    ****                               |RCC_PERIPHCLK_SDMMC2|RCC_PERIPHCLK_I2S
 606              		.loc 1 361 3 is_stmt 1 view .LVU187
 361:Src/main.c    ****                               |RCC_PERIPHCLK_SDMMC2|RCC_PERIPHCLK_I2S
 607              		.loc 1 361 44 is_stmt 0 view .LVU188
ARM GAS  /var/folders/4f/bvl6__ys6qq7h5n0wwljfc200000gn/T//cchNM4Pb.s 			page 25


 608 0090 0B4B     		ldr	r3, .L21+8
 609 0092 0293     		str	r3, [sp, #8]
 364:Src/main.c    ****   PeriphClkInitStruct.PLLI2S.PLLI2SP = RCC_PLLP_DIV2;
 610              		.loc 1 364 3 is_stmt 1 view .LVU189
 364:Src/main.c    ****   PeriphClkInitStruct.PLLI2S.PLLI2SP = RCC_PLLP_DIV2;
 611              		.loc 1 364 38 is_stmt 0 view .LVU190
 612 0094 0397     		str	r7, [sp, #12]
 365:Src/main.c    ****   PeriphClkInitStruct.PLLI2S.PLLI2SR = 2;
 613              		.loc 1 365 3 is_stmt 1 view .LVU191
 365:Src/main.c    ****   PeriphClkInitStruct.PLLI2S.PLLI2SR = 2;
 614              		.loc 1 365 38 is_stmt 0 view .LVU192
 615 0096 0695     		str	r5, [sp, #24]
 366:Src/main.c    ****   PeriphClkInitStruct.PLLI2S.PLLI2SQ = 2;
 616              		.loc 1 366 3 is_stmt 1 view .LVU193
 366:Src/main.c    ****   PeriphClkInitStruct.PLLI2S.PLLI2SQ = 2;
 617              		.loc 1 366 38 is_stmt 0 view .LVU194
 618 0098 0495     		str	r5, [sp, #16]
 367:Src/main.c    ****   PeriphClkInitStruct.PLLI2SDivQ = 1;
 619              		.loc 1 367 3 is_stmt 1 view .LVU195
 367:Src/main.c    ****   PeriphClkInitStruct.PLLI2SDivQ = 1;
 620              		.loc 1 367 38 is_stmt 0 view .LVU196
 621 009a 0595     		str	r5, [sp, #20]
 368:Src/main.c    ****   PeriphClkInitStruct.I2sClockSelection = RCC_I2SCLKSOURCE_PLLI2S;
 622              		.loc 1 368 3 is_stmt 1 view .LVU197
 368:Src/main.c    ****   PeriphClkInitStruct.I2sClockSelection = RCC_I2SCLKSOURCE_PLLI2S;
 623              		.loc 1 368 34 is_stmt 0 view .LVU198
 624 009c 0B96     		str	r6, [sp, #44]
 369:Src/main.c    ****   PeriphClkInitStruct.Usart1ClockSelection = RCC_USART1CLKSOURCE_PCLK2;
 625              		.loc 1 369 3 is_stmt 1 view .LVU199
 369:Src/main.c    ****   PeriphClkInitStruct.Usart1ClockSelection = RCC_USART1CLKSOURCE_PCLK2;
 626              		.loc 1 369 41 is_stmt 0 view .LVU200
 627 009e 0F94     		str	r4, [sp, #60]
 370:Src/main.c    ****   PeriphClkInitStruct.Usart2ClockSelection = RCC_USART2CLKSOURCE_PCLK1;
 628              		.loc 1 370 3 is_stmt 1 view .LVU201
 370:Src/main.c    ****   PeriphClkInitStruct.Usart2ClockSelection = RCC_USART2CLKSOURCE_PCLK1;
 629              		.loc 1 370 44 is_stmt 0 view .LVU202
 630 00a0 1394     		str	r4, [sp, #76]
 371:Src/main.c    ****   PeriphClkInitStruct.Clk48ClockSelection = RCC_CLK48SOURCE_PLL;
 631              		.loc 1 371 3 is_stmt 1 view .LVU203
 371:Src/main.c    ****   PeriphClkInitStruct.Clk48ClockSelection = RCC_CLK48SOURCE_PLL;
 632              		.loc 1 371 44 is_stmt 0 view .LVU204
 633 00a2 1494     		str	r4, [sp, #80]
 372:Src/main.c    ****   PeriphClkInitStruct.Sdmmc2ClockSelection = RCC_SDMMC2CLKSOURCE_SYSCLK;
 634              		.loc 1 372 3 is_stmt 1 view .LVU205
 372:Src/main.c    ****   PeriphClkInitStruct.Sdmmc2ClockSelection = RCC_SDMMC2CLKSOURCE_SYSCLK;
 635              		.loc 1 372 43 is_stmt 0 view .LVU206
 636 00a4 2194     		str	r4, [sp, #132]
 373:Src/main.c    ****   if (HAL_RCCEx_PeriphCLKConfig(&PeriphClkInitStruct) != HAL_OK)
 637              		.loc 1 373 3 is_stmt 1 view .LVU207
 373:Src/main.c    ****   if (HAL_RCCEx_PeriphCLKConfig(&PeriphClkInitStruct) != HAL_OK)
 638              		.loc 1 373 44 is_stmt 0 view .LVU208
 639 00a6 4FF00053 		mov	r3, #536870912
 640 00aa 2393     		str	r3, [sp, #140]
 374:Src/main.c    ****   {
 641              		.loc 1 374 3 is_stmt 1 view .LVU209
 374:Src/main.c    ****   {
 642              		.loc 1 374 7 is_stmt 0 view .LVU210
ARM GAS  /var/folders/4f/bvl6__ys6qq7h5n0wwljfc200000gn/T//cchNM4Pb.s 			page 26


 643 00ac 02A8     		add	r0, sp, #8
 644 00ae FFF7FEFF 		bl	HAL_RCCEx_PeriphCLKConfig
 645              	.LVL22:
 378:Src/main.c    **** 
 646              		.loc 1 378 1 view .LVU211
 647 00b2 39B0     		add	sp, sp, #228
 648              	.LCFI9:
 649              		.cfi_def_cfa_offset 20
 650              		@ sp needed
 651 00b4 F0BD     		pop	{r4, r5, r6, r7, pc}
 652              	.L22:
 653 00b6 00BF     		.align	2
 654              	.L21:
 655 00b8 00380240 		.word	1073887232
 656 00bc 00700040 		.word	1073770496
 657 00c0 C1002004 		.word	69206209
 658              		.cfi_endproc
 659              	.LFE146:
 661              		.section	.text.myprintf,"ax",%progbits
 662              		.align	1
 663              		.global	myprintf
 664              		.syntax unified
 665              		.thumb
 666              		.thumb_func
 667              		.fpu fpv5-d16
 669              	myprintf:
 670              	.LVL23:
 671              	.LFB155:
 676:Src/main.c    **** 
 677:Src/main.c    **** /* USER CODE BEGIN 4 */
 678:Src/main.c    **** void myprintf(const char *fmt, ...) {
 672              		.loc 1 678 37 is_stmt 1 view -0
 673              		.cfi_startproc
 674              		@ args = 4, pretend = 16, frame = 8
 675              		@ frame_needed = 0, uses_anonymous_args = 1
 676              		.loc 1 678 37 is_stmt 0 view .LVU213
 677 0000 0FB4     		push	{r0, r1, r2, r3}
 678              	.LCFI10:
 679              		.cfi_def_cfa_offset 16
 680              		.cfi_offset 0, -16
 681              		.cfi_offset 1, -12
 682              		.cfi_offset 2, -8
 683              		.cfi_offset 3, -4
 684 0002 00B5     		push	{lr}
 685              	.LCFI11:
 686              		.cfi_def_cfa_offset 20
 687              		.cfi_offset 14, -20
 688 0004 83B0     		sub	sp, sp, #12
 689              	.LCFI12:
 690              		.cfi_def_cfa_offset 32
 691 0006 04AB     		add	r3, sp, #16
 692 0008 53F8041B 		ldr	r1, [r3], #4
 679:Src/main.c    ****   va_list args;
 693              		.loc 1 679 3 is_stmt 1 view .LVU214
 680:Src/main.c    ****   va_start(args, fmt);
 694              		.loc 1 680 3 view .LVU215
 695 000c 0193     		str	r3, [sp, #4]
ARM GAS  /var/folders/4f/bvl6__ys6qq7h5n0wwljfc200000gn/T//cchNM4Pb.s 			page 27


 681:Src/main.c    ****   SEGGER_RTT_printf(0, fmt, &args);
 696              		.loc 1 681 3 view .LVU216
 697 000e 01AA     		add	r2, sp, #4
 698 0010 0020     		movs	r0, #0
 699 0012 FFF7FEFF 		bl	SEGGER_RTT_printf
 700              	.LVL24:
 682:Src/main.c    ****   va_end(args);
 701              		.loc 1 682 3 view .LVU217
 683:Src/main.c    **** }
 702              		.loc 1 683 1 is_stmt 0 view .LVU218
 703 0016 03B0     		add	sp, sp, #12
 704              	.LCFI13:
 705              		.cfi_def_cfa_offset 20
 706              		@ sp needed
 707 0018 5DF804EB 		ldr	lr, [sp], #4
 708              	.LCFI14:
 709              		.cfi_restore 14
 710              		.cfi_def_cfa_offset 16
 711 001c 04B0     		add	sp, sp, #16
 712              	.LCFI15:
 713              		.cfi_restore 3
 714              		.cfi_restore 2
 715              		.cfi_restore 1
 716              		.cfi_restore 0
 717              		.cfi_def_cfa_offset 0
 718 001e 7047     		bx	lr
 719              		.cfi_endproc
 720              	.LFE155:
 722              		.section	.text.main,"ax",%progbits
 723              		.align	1
 724              		.global	main
 725              		.syntax unified
 726              		.thumb
 727              		.thumb_func
 728              		.fpu fpv5-d16
 730              	main:
 731              	.LFB144:
 101:Src/main.c    ****   /* USER CODE BEGIN 1 */
 732              		.loc 1 101 1 is_stmt 1 view -0
 733              		.cfi_startproc
 734              		@ args = 0, pretend = 0, frame = 1744
 735              		@ frame_needed = 0, uses_anonymous_args = 0
 736 0000 70B5     		push	{r4, r5, r6, lr}
 737              	.LCFI16:
 738              		.cfi_def_cfa_offset 16
 739              		.cfi_offset 4, -16
 740              		.cfi_offset 5, -12
 741              		.cfi_offset 6, -8
 742              		.cfi_offset 14, -4
 743 0002 ADF5DB6D 		sub	sp, sp, #1752
 744              	.LCFI17:
 745              		.cfi_def_cfa_offset 1768
 107:Src/main.c    **** 
 746              		.loc 1 107 3 view .LVU220
 747              	.LBB70:
 748              	.LBI70:
 749              		.file 2 "Drivers/CMSIS/Include/core_cm7.h"
ARM GAS  /var/folders/4f/bvl6__ys6qq7h5n0wwljfc200000gn/T//cchNM4Pb.s 			page 28


   1:Drivers/CMSIS/Include/core_cm7.h **** /**************************************************************************//**
   2:Drivers/CMSIS/Include/core_cm7.h ****  * @file     core_cm7.h
   3:Drivers/CMSIS/Include/core_cm7.h ****  * @brief    CMSIS Cortex-M7 Core Peripheral Access Layer Header File
   4:Drivers/CMSIS/Include/core_cm7.h ****  * @version  V5.0.8
   5:Drivers/CMSIS/Include/core_cm7.h ****  * @date     04. June 2018
   6:Drivers/CMSIS/Include/core_cm7.h ****  ******************************************************************************/
   7:Drivers/CMSIS/Include/core_cm7.h **** /*
   8:Drivers/CMSIS/Include/core_cm7.h ****  * Copyright (c) 2009-2018 Arm Limited. All rights reserved.
   9:Drivers/CMSIS/Include/core_cm7.h ****  *
  10:Drivers/CMSIS/Include/core_cm7.h ****  * SPDX-License-Identifier: Apache-2.0
  11:Drivers/CMSIS/Include/core_cm7.h ****  *
  12:Drivers/CMSIS/Include/core_cm7.h ****  * Licensed under the Apache License, Version 2.0 (the License); you may
  13:Drivers/CMSIS/Include/core_cm7.h ****  * not use this file except in compliance with the License.
  14:Drivers/CMSIS/Include/core_cm7.h ****  * You may obtain a copy of the License at
  15:Drivers/CMSIS/Include/core_cm7.h ****  *
  16:Drivers/CMSIS/Include/core_cm7.h ****  * www.apache.org/licenses/LICENSE-2.0
  17:Drivers/CMSIS/Include/core_cm7.h ****  *
  18:Drivers/CMSIS/Include/core_cm7.h ****  * Unless required by applicable law or agreed to in writing, software
  19:Drivers/CMSIS/Include/core_cm7.h ****  * distributed under the License is distributed on an AS IS BASIS, WITHOUT
  20:Drivers/CMSIS/Include/core_cm7.h ****  * WARRANTIES OR CONDITIONS OF ANY KIND, either express or implied.
  21:Drivers/CMSIS/Include/core_cm7.h ****  * See the License for the specific language governing permissions and
  22:Drivers/CMSIS/Include/core_cm7.h ****  * limitations under the License.
  23:Drivers/CMSIS/Include/core_cm7.h ****  */
  24:Drivers/CMSIS/Include/core_cm7.h **** 
  25:Drivers/CMSIS/Include/core_cm7.h **** #if   defined ( __ICCARM__ )
  26:Drivers/CMSIS/Include/core_cm7.h ****   #pragma system_include         /* treat file as system include file for MISRA check */
  27:Drivers/CMSIS/Include/core_cm7.h **** #elif defined (__clang__)
  28:Drivers/CMSIS/Include/core_cm7.h ****   #pragma clang system_header   /* treat file as system include file */
  29:Drivers/CMSIS/Include/core_cm7.h **** #endif
  30:Drivers/CMSIS/Include/core_cm7.h **** 
  31:Drivers/CMSIS/Include/core_cm7.h **** #ifndef __CORE_CM7_H_GENERIC
  32:Drivers/CMSIS/Include/core_cm7.h **** #define __CORE_CM7_H_GENERIC
  33:Drivers/CMSIS/Include/core_cm7.h **** 
  34:Drivers/CMSIS/Include/core_cm7.h **** #include <stdint.h>
  35:Drivers/CMSIS/Include/core_cm7.h **** 
  36:Drivers/CMSIS/Include/core_cm7.h **** #ifdef __cplusplus
  37:Drivers/CMSIS/Include/core_cm7.h ****  extern "C" {
  38:Drivers/CMSIS/Include/core_cm7.h **** #endif
  39:Drivers/CMSIS/Include/core_cm7.h **** 
  40:Drivers/CMSIS/Include/core_cm7.h **** /**
  41:Drivers/CMSIS/Include/core_cm7.h ****   \page CMSIS_MISRA_Exceptions  MISRA-C:2004 Compliance Exceptions
  42:Drivers/CMSIS/Include/core_cm7.h ****   CMSIS violates the following MISRA-C:2004 rules:
  43:Drivers/CMSIS/Include/core_cm7.h **** 
  44:Drivers/CMSIS/Include/core_cm7.h ****    \li Required Rule 8.5, object/function definition in header file.<br>
  45:Drivers/CMSIS/Include/core_cm7.h ****      Function definitions in header files are used to allow 'inlining'.
  46:Drivers/CMSIS/Include/core_cm7.h **** 
  47:Drivers/CMSIS/Include/core_cm7.h ****    \li Required Rule 18.4, declaration of union type or object of union type: '{...}'.<br>
  48:Drivers/CMSIS/Include/core_cm7.h ****      Unions are used for effective representation of core registers.
  49:Drivers/CMSIS/Include/core_cm7.h **** 
  50:Drivers/CMSIS/Include/core_cm7.h ****    \li Advisory Rule 19.7, Function-like macro defined.<br>
  51:Drivers/CMSIS/Include/core_cm7.h ****      Function-like macros are used to allow more efficient code.
  52:Drivers/CMSIS/Include/core_cm7.h ****  */
  53:Drivers/CMSIS/Include/core_cm7.h **** 
  54:Drivers/CMSIS/Include/core_cm7.h **** 
  55:Drivers/CMSIS/Include/core_cm7.h **** /*******************************************************************************
  56:Drivers/CMSIS/Include/core_cm7.h ****  *                 CMSIS definitions
  57:Drivers/CMSIS/Include/core_cm7.h ****  ******************************************************************************/
ARM GAS  /var/folders/4f/bvl6__ys6qq7h5n0wwljfc200000gn/T//cchNM4Pb.s 			page 29


  58:Drivers/CMSIS/Include/core_cm7.h **** /**
  59:Drivers/CMSIS/Include/core_cm7.h ****   \ingroup Cortex_M7
  60:Drivers/CMSIS/Include/core_cm7.h ****   @{
  61:Drivers/CMSIS/Include/core_cm7.h ****  */
  62:Drivers/CMSIS/Include/core_cm7.h **** 
  63:Drivers/CMSIS/Include/core_cm7.h **** #include "cmsis_version.h"
  64:Drivers/CMSIS/Include/core_cm7.h **** 
  65:Drivers/CMSIS/Include/core_cm7.h **** /* CMSIS CM7 definitions */
  66:Drivers/CMSIS/Include/core_cm7.h **** #define __CM7_CMSIS_VERSION_MAIN  (__CM_CMSIS_VERSION_MAIN)                  /*!< \deprecated [31:1
  67:Drivers/CMSIS/Include/core_cm7.h **** #define __CM7_CMSIS_VERSION_SUB   ( __CM_CMSIS_VERSION_SUB)                  /*!< \deprecated [15:0
  68:Drivers/CMSIS/Include/core_cm7.h **** #define __CM7_CMSIS_VERSION       ((__CM7_CMSIS_VERSION_MAIN << 16U) | \
  69:Drivers/CMSIS/Include/core_cm7.h ****                                     __CM7_CMSIS_VERSION_SUB           )      /*!< \deprecated CMSIS
  70:Drivers/CMSIS/Include/core_cm7.h **** 
  71:Drivers/CMSIS/Include/core_cm7.h **** #define __CORTEX_M                (7U)                                       /*!< Cortex-M Core */
  72:Drivers/CMSIS/Include/core_cm7.h **** 
  73:Drivers/CMSIS/Include/core_cm7.h **** /** __FPU_USED indicates whether an FPU is used or not.
  74:Drivers/CMSIS/Include/core_cm7.h ****     For this, __FPU_PRESENT has to be checked prior to making use of FPU specific registers and fun
  75:Drivers/CMSIS/Include/core_cm7.h **** */
  76:Drivers/CMSIS/Include/core_cm7.h **** #if defined ( __CC_ARM )
  77:Drivers/CMSIS/Include/core_cm7.h ****   #if defined __TARGET_FPU_VFP
  78:Drivers/CMSIS/Include/core_cm7.h ****     #if defined (__FPU_PRESENT) && (__FPU_PRESENT == 1U)
  79:Drivers/CMSIS/Include/core_cm7.h ****       #define __FPU_USED       1U
  80:Drivers/CMSIS/Include/core_cm7.h ****     #else
  81:Drivers/CMSIS/Include/core_cm7.h ****       #error "Compiler generates FPU instructions for a device without an FPU (check __FPU_PRESENT)
  82:Drivers/CMSIS/Include/core_cm7.h ****       #define __FPU_USED       0U
  83:Drivers/CMSIS/Include/core_cm7.h ****     #endif
  84:Drivers/CMSIS/Include/core_cm7.h ****   #else
  85:Drivers/CMSIS/Include/core_cm7.h ****     #define __FPU_USED         0U
  86:Drivers/CMSIS/Include/core_cm7.h ****   #endif
  87:Drivers/CMSIS/Include/core_cm7.h **** 
  88:Drivers/CMSIS/Include/core_cm7.h **** #elif defined (__ARMCC_VERSION) && (__ARMCC_VERSION >= 6010050)
  89:Drivers/CMSIS/Include/core_cm7.h ****   #if defined __ARM_PCS_VFP
  90:Drivers/CMSIS/Include/core_cm7.h ****     #if defined (__FPU_PRESENT) && (__FPU_PRESENT == 1U)
  91:Drivers/CMSIS/Include/core_cm7.h ****       #define __FPU_USED       1U
  92:Drivers/CMSIS/Include/core_cm7.h ****     #else
  93:Drivers/CMSIS/Include/core_cm7.h ****       #warning "Compiler generates FPU instructions for a device without an FPU (check __FPU_PRESEN
  94:Drivers/CMSIS/Include/core_cm7.h ****       #define __FPU_USED       0U
  95:Drivers/CMSIS/Include/core_cm7.h ****     #endif
  96:Drivers/CMSIS/Include/core_cm7.h ****   #else
  97:Drivers/CMSIS/Include/core_cm7.h ****     #define __FPU_USED         0U
  98:Drivers/CMSIS/Include/core_cm7.h ****   #endif
  99:Drivers/CMSIS/Include/core_cm7.h **** 
 100:Drivers/CMSIS/Include/core_cm7.h **** #elif defined ( __GNUC__ )
 101:Drivers/CMSIS/Include/core_cm7.h ****   #if defined (__VFP_FP__) && !defined(__SOFTFP__)
 102:Drivers/CMSIS/Include/core_cm7.h ****     #if defined (__FPU_PRESENT) && (__FPU_PRESENT == 1U)
 103:Drivers/CMSIS/Include/core_cm7.h ****       #define __FPU_USED       1U
 104:Drivers/CMSIS/Include/core_cm7.h ****     #else
 105:Drivers/CMSIS/Include/core_cm7.h ****       #error "Compiler generates FPU instructions for a device without an FPU (check __FPU_PRESENT)
 106:Drivers/CMSIS/Include/core_cm7.h ****       #define __FPU_USED       0U
 107:Drivers/CMSIS/Include/core_cm7.h ****     #endif
 108:Drivers/CMSIS/Include/core_cm7.h ****   #else
 109:Drivers/CMSIS/Include/core_cm7.h ****     #define __FPU_USED         0U
 110:Drivers/CMSIS/Include/core_cm7.h ****   #endif
 111:Drivers/CMSIS/Include/core_cm7.h **** 
 112:Drivers/CMSIS/Include/core_cm7.h **** #elif defined ( __ICCARM__ )
 113:Drivers/CMSIS/Include/core_cm7.h ****   #if defined __ARMVFP__
 114:Drivers/CMSIS/Include/core_cm7.h ****     #if defined (__FPU_PRESENT) && (__FPU_PRESENT == 1U)
ARM GAS  /var/folders/4f/bvl6__ys6qq7h5n0wwljfc200000gn/T//cchNM4Pb.s 			page 30


 115:Drivers/CMSIS/Include/core_cm7.h ****       #define __FPU_USED       1U
 116:Drivers/CMSIS/Include/core_cm7.h ****     #else
 117:Drivers/CMSIS/Include/core_cm7.h ****       #error "Compiler generates FPU instructions for a device without an FPU (check __FPU_PRESENT)
 118:Drivers/CMSIS/Include/core_cm7.h ****       #define __FPU_USED       0U
 119:Drivers/CMSIS/Include/core_cm7.h ****     #endif
 120:Drivers/CMSIS/Include/core_cm7.h ****   #else
 121:Drivers/CMSIS/Include/core_cm7.h ****     #define __FPU_USED         0U
 122:Drivers/CMSIS/Include/core_cm7.h ****   #endif
 123:Drivers/CMSIS/Include/core_cm7.h **** 
 124:Drivers/CMSIS/Include/core_cm7.h **** #elif defined ( __TI_ARM__ )
 125:Drivers/CMSIS/Include/core_cm7.h ****   #if defined __TI_VFP_SUPPORT__
 126:Drivers/CMSIS/Include/core_cm7.h ****     #if defined (__FPU_PRESENT) && (__FPU_PRESENT == 1U)
 127:Drivers/CMSIS/Include/core_cm7.h ****       #define __FPU_USED       1U
 128:Drivers/CMSIS/Include/core_cm7.h ****     #else
 129:Drivers/CMSIS/Include/core_cm7.h ****       #error "Compiler generates FPU instructions for a device without an FPU (check __FPU_PRESENT)
 130:Drivers/CMSIS/Include/core_cm7.h ****       #define __FPU_USED       0U
 131:Drivers/CMSIS/Include/core_cm7.h ****     #endif
 132:Drivers/CMSIS/Include/core_cm7.h ****   #else
 133:Drivers/CMSIS/Include/core_cm7.h ****     #define __FPU_USED         0U
 134:Drivers/CMSIS/Include/core_cm7.h ****   #endif
 135:Drivers/CMSIS/Include/core_cm7.h **** 
 136:Drivers/CMSIS/Include/core_cm7.h **** #elif defined ( __TASKING__ )
 137:Drivers/CMSIS/Include/core_cm7.h ****   #if defined __FPU_VFP__
 138:Drivers/CMSIS/Include/core_cm7.h ****     #if defined (__FPU_PRESENT) && (__FPU_PRESENT == 1U)
 139:Drivers/CMSIS/Include/core_cm7.h ****       #define __FPU_USED       1U
 140:Drivers/CMSIS/Include/core_cm7.h ****     #else
 141:Drivers/CMSIS/Include/core_cm7.h ****       #error "Compiler generates FPU instructions for a device without an FPU (check __FPU_PRESENT)
 142:Drivers/CMSIS/Include/core_cm7.h ****       #define __FPU_USED       0U
 143:Drivers/CMSIS/Include/core_cm7.h ****     #endif
 144:Drivers/CMSIS/Include/core_cm7.h ****   #else
 145:Drivers/CMSIS/Include/core_cm7.h ****     #define __FPU_USED         0U
 146:Drivers/CMSIS/Include/core_cm7.h ****   #endif
 147:Drivers/CMSIS/Include/core_cm7.h **** 
 148:Drivers/CMSIS/Include/core_cm7.h **** #elif defined ( __CSMC__ )
 149:Drivers/CMSIS/Include/core_cm7.h ****   #if ( __CSMC__ & 0x400U)
 150:Drivers/CMSIS/Include/core_cm7.h ****     #if defined (__FPU_PRESENT) && (__FPU_PRESENT == 1U)
 151:Drivers/CMSIS/Include/core_cm7.h ****       #define __FPU_USED       1U
 152:Drivers/CMSIS/Include/core_cm7.h ****     #else
 153:Drivers/CMSIS/Include/core_cm7.h ****       #error "Compiler generates FPU instructions for a device without an FPU (check __FPU_PRESENT)
 154:Drivers/CMSIS/Include/core_cm7.h ****       #define __FPU_USED       0U
 155:Drivers/CMSIS/Include/core_cm7.h ****     #endif
 156:Drivers/CMSIS/Include/core_cm7.h ****   #else
 157:Drivers/CMSIS/Include/core_cm7.h ****     #define __FPU_USED         0U
 158:Drivers/CMSIS/Include/core_cm7.h ****   #endif
 159:Drivers/CMSIS/Include/core_cm7.h **** 
 160:Drivers/CMSIS/Include/core_cm7.h **** #endif
 161:Drivers/CMSIS/Include/core_cm7.h **** 
 162:Drivers/CMSIS/Include/core_cm7.h **** #include "cmsis_compiler.h"               /* CMSIS compiler specific defines */
 163:Drivers/CMSIS/Include/core_cm7.h **** 
 164:Drivers/CMSIS/Include/core_cm7.h **** 
 165:Drivers/CMSIS/Include/core_cm7.h **** #ifdef __cplusplus
 166:Drivers/CMSIS/Include/core_cm7.h **** }
 167:Drivers/CMSIS/Include/core_cm7.h **** #endif
 168:Drivers/CMSIS/Include/core_cm7.h **** 
 169:Drivers/CMSIS/Include/core_cm7.h **** #endif /* __CORE_CM7_H_GENERIC */
 170:Drivers/CMSIS/Include/core_cm7.h **** 
 171:Drivers/CMSIS/Include/core_cm7.h **** #ifndef __CMSIS_GENERIC
ARM GAS  /var/folders/4f/bvl6__ys6qq7h5n0wwljfc200000gn/T//cchNM4Pb.s 			page 31


 172:Drivers/CMSIS/Include/core_cm7.h **** 
 173:Drivers/CMSIS/Include/core_cm7.h **** #ifndef __CORE_CM7_H_DEPENDANT
 174:Drivers/CMSIS/Include/core_cm7.h **** #define __CORE_CM7_H_DEPENDANT
 175:Drivers/CMSIS/Include/core_cm7.h **** 
 176:Drivers/CMSIS/Include/core_cm7.h **** #ifdef __cplusplus
 177:Drivers/CMSIS/Include/core_cm7.h ****  extern "C" {
 178:Drivers/CMSIS/Include/core_cm7.h **** #endif
 179:Drivers/CMSIS/Include/core_cm7.h **** 
 180:Drivers/CMSIS/Include/core_cm7.h **** /* check device defines and use defaults */
 181:Drivers/CMSIS/Include/core_cm7.h **** #if defined __CHECK_DEVICE_DEFINES
 182:Drivers/CMSIS/Include/core_cm7.h ****   #ifndef __CM7_REV
 183:Drivers/CMSIS/Include/core_cm7.h ****     #define __CM7_REV               0x0000U
 184:Drivers/CMSIS/Include/core_cm7.h ****     #warning "__CM7_REV not defined in device header file; using default!"
 185:Drivers/CMSIS/Include/core_cm7.h ****   #endif
 186:Drivers/CMSIS/Include/core_cm7.h **** 
 187:Drivers/CMSIS/Include/core_cm7.h ****   #ifndef __FPU_PRESENT
 188:Drivers/CMSIS/Include/core_cm7.h ****     #define __FPU_PRESENT             0U
 189:Drivers/CMSIS/Include/core_cm7.h ****     #warning "__FPU_PRESENT not defined in device header file; using default!"
 190:Drivers/CMSIS/Include/core_cm7.h ****   #endif
 191:Drivers/CMSIS/Include/core_cm7.h **** 
 192:Drivers/CMSIS/Include/core_cm7.h ****   #ifndef __MPU_PRESENT
 193:Drivers/CMSIS/Include/core_cm7.h ****     #define __MPU_PRESENT             0U
 194:Drivers/CMSIS/Include/core_cm7.h ****     #warning "__MPU_PRESENT not defined in device header file; using default!"
 195:Drivers/CMSIS/Include/core_cm7.h ****   #endif
 196:Drivers/CMSIS/Include/core_cm7.h **** 
 197:Drivers/CMSIS/Include/core_cm7.h ****   #ifndef __ICACHE_PRESENT
 198:Drivers/CMSIS/Include/core_cm7.h ****     #define __ICACHE_PRESENT          0U
 199:Drivers/CMSIS/Include/core_cm7.h ****     #warning "__ICACHE_PRESENT not defined in device header file; using default!"
 200:Drivers/CMSIS/Include/core_cm7.h ****   #endif
 201:Drivers/CMSIS/Include/core_cm7.h **** 
 202:Drivers/CMSIS/Include/core_cm7.h ****   #ifndef __DCACHE_PRESENT
 203:Drivers/CMSIS/Include/core_cm7.h ****     #define __DCACHE_PRESENT          0U
 204:Drivers/CMSIS/Include/core_cm7.h ****     #warning "__DCACHE_PRESENT not defined in device header file; using default!"
 205:Drivers/CMSIS/Include/core_cm7.h ****   #endif
 206:Drivers/CMSIS/Include/core_cm7.h **** 
 207:Drivers/CMSIS/Include/core_cm7.h ****   #ifndef __DTCM_PRESENT
 208:Drivers/CMSIS/Include/core_cm7.h ****     #define __DTCM_PRESENT            0U
 209:Drivers/CMSIS/Include/core_cm7.h ****     #warning "__DTCM_PRESENT        not defined in device header file; using default!"
 210:Drivers/CMSIS/Include/core_cm7.h ****   #endif
 211:Drivers/CMSIS/Include/core_cm7.h **** 
 212:Drivers/CMSIS/Include/core_cm7.h ****   #ifndef __NVIC_PRIO_BITS
 213:Drivers/CMSIS/Include/core_cm7.h ****     #define __NVIC_PRIO_BITS          3U
 214:Drivers/CMSIS/Include/core_cm7.h ****     #warning "__NVIC_PRIO_BITS not defined in device header file; using default!"
 215:Drivers/CMSIS/Include/core_cm7.h ****   #endif
 216:Drivers/CMSIS/Include/core_cm7.h **** 
 217:Drivers/CMSIS/Include/core_cm7.h ****   #ifndef __Vendor_SysTickConfig
 218:Drivers/CMSIS/Include/core_cm7.h ****     #define __Vendor_SysTickConfig    0U
 219:Drivers/CMSIS/Include/core_cm7.h ****     #warning "__Vendor_SysTickConfig not defined in device header file; using default!"
 220:Drivers/CMSIS/Include/core_cm7.h ****   #endif
 221:Drivers/CMSIS/Include/core_cm7.h **** #endif
 222:Drivers/CMSIS/Include/core_cm7.h **** 
 223:Drivers/CMSIS/Include/core_cm7.h **** /* IO definitions (access restrictions to peripheral registers) */
 224:Drivers/CMSIS/Include/core_cm7.h **** /**
 225:Drivers/CMSIS/Include/core_cm7.h ****     \defgroup CMSIS_glob_defs CMSIS Global Defines
 226:Drivers/CMSIS/Include/core_cm7.h **** 
 227:Drivers/CMSIS/Include/core_cm7.h ****     <strong>IO Type Qualifiers</strong> are used
 228:Drivers/CMSIS/Include/core_cm7.h ****     \li to specify the access to peripheral variables.
ARM GAS  /var/folders/4f/bvl6__ys6qq7h5n0wwljfc200000gn/T//cchNM4Pb.s 			page 32


 229:Drivers/CMSIS/Include/core_cm7.h ****     \li for automatic generation of peripheral register debug information.
 230:Drivers/CMSIS/Include/core_cm7.h **** */
 231:Drivers/CMSIS/Include/core_cm7.h **** #ifdef __cplusplus
 232:Drivers/CMSIS/Include/core_cm7.h ****   #define   __I     volatile             /*!< Defines 'read only' permissions */
 233:Drivers/CMSIS/Include/core_cm7.h **** #else
 234:Drivers/CMSIS/Include/core_cm7.h ****   #define   __I     volatile const       /*!< Defines 'read only' permissions */
 235:Drivers/CMSIS/Include/core_cm7.h **** #endif
 236:Drivers/CMSIS/Include/core_cm7.h **** #define     __O     volatile             /*!< Defines 'write only' permissions */
 237:Drivers/CMSIS/Include/core_cm7.h **** #define     __IO    volatile             /*!< Defines 'read / write' permissions */
 238:Drivers/CMSIS/Include/core_cm7.h **** 
 239:Drivers/CMSIS/Include/core_cm7.h **** /* following defines should be used for structure members */
 240:Drivers/CMSIS/Include/core_cm7.h **** #define     __IM     volatile const      /*! Defines 'read only' structure member permissions */
 241:Drivers/CMSIS/Include/core_cm7.h **** #define     __OM     volatile            /*! Defines 'write only' structure member permissions */
 242:Drivers/CMSIS/Include/core_cm7.h **** #define     __IOM    volatile            /*! Defines 'read / write' structure member permissions */
 243:Drivers/CMSIS/Include/core_cm7.h **** 
 244:Drivers/CMSIS/Include/core_cm7.h **** /*@} end of group Cortex_M7 */
 245:Drivers/CMSIS/Include/core_cm7.h **** 
 246:Drivers/CMSIS/Include/core_cm7.h **** 
 247:Drivers/CMSIS/Include/core_cm7.h **** 
 248:Drivers/CMSIS/Include/core_cm7.h **** /*******************************************************************************
 249:Drivers/CMSIS/Include/core_cm7.h ****  *                 Register Abstraction
 250:Drivers/CMSIS/Include/core_cm7.h ****   Core Register contain:
 251:Drivers/CMSIS/Include/core_cm7.h ****   - Core Register
 252:Drivers/CMSIS/Include/core_cm7.h ****   - Core NVIC Register
 253:Drivers/CMSIS/Include/core_cm7.h ****   - Core SCB Register
 254:Drivers/CMSIS/Include/core_cm7.h ****   - Core SysTick Register
 255:Drivers/CMSIS/Include/core_cm7.h ****   - Core Debug Register
 256:Drivers/CMSIS/Include/core_cm7.h ****   - Core MPU Register
 257:Drivers/CMSIS/Include/core_cm7.h ****   - Core FPU Register
 258:Drivers/CMSIS/Include/core_cm7.h ****  ******************************************************************************/
 259:Drivers/CMSIS/Include/core_cm7.h **** /**
 260:Drivers/CMSIS/Include/core_cm7.h ****   \defgroup CMSIS_core_register Defines and Type Definitions
 261:Drivers/CMSIS/Include/core_cm7.h ****   \brief Type definitions and defines for Cortex-M processor based devices.
 262:Drivers/CMSIS/Include/core_cm7.h **** */
 263:Drivers/CMSIS/Include/core_cm7.h **** 
 264:Drivers/CMSIS/Include/core_cm7.h **** /**
 265:Drivers/CMSIS/Include/core_cm7.h ****   \ingroup    CMSIS_core_register
 266:Drivers/CMSIS/Include/core_cm7.h ****   \defgroup   CMSIS_CORE  Status and Control Registers
 267:Drivers/CMSIS/Include/core_cm7.h ****   \brief      Core Register type definitions.
 268:Drivers/CMSIS/Include/core_cm7.h ****   @{
 269:Drivers/CMSIS/Include/core_cm7.h ****  */
 270:Drivers/CMSIS/Include/core_cm7.h **** 
 271:Drivers/CMSIS/Include/core_cm7.h **** /**
 272:Drivers/CMSIS/Include/core_cm7.h ****   \brief  Union type to access the Application Program Status Register (APSR).
 273:Drivers/CMSIS/Include/core_cm7.h ****  */
 274:Drivers/CMSIS/Include/core_cm7.h **** typedef union
 275:Drivers/CMSIS/Include/core_cm7.h **** {
 276:Drivers/CMSIS/Include/core_cm7.h ****   struct
 277:Drivers/CMSIS/Include/core_cm7.h ****   {
 278:Drivers/CMSIS/Include/core_cm7.h ****     uint32_t _reserved0:16;              /*!< bit:  0..15  Reserved */
 279:Drivers/CMSIS/Include/core_cm7.h ****     uint32_t GE:4;                       /*!< bit: 16..19  Greater than or Equal flags */
 280:Drivers/CMSIS/Include/core_cm7.h ****     uint32_t _reserved1:7;               /*!< bit: 20..26  Reserved */
 281:Drivers/CMSIS/Include/core_cm7.h ****     uint32_t Q:1;                        /*!< bit:     27  Saturation condition flag */
 282:Drivers/CMSIS/Include/core_cm7.h ****     uint32_t V:1;                        /*!< bit:     28  Overflow condition code flag */
 283:Drivers/CMSIS/Include/core_cm7.h ****     uint32_t C:1;                        /*!< bit:     29  Carry condition code flag */
 284:Drivers/CMSIS/Include/core_cm7.h ****     uint32_t Z:1;                        /*!< bit:     30  Zero condition code flag */
 285:Drivers/CMSIS/Include/core_cm7.h ****     uint32_t N:1;                        /*!< bit:     31  Negative condition code flag */
ARM GAS  /var/folders/4f/bvl6__ys6qq7h5n0wwljfc200000gn/T//cchNM4Pb.s 			page 33


 286:Drivers/CMSIS/Include/core_cm7.h ****   } b;                                   /*!< Structure used for bit  access */
 287:Drivers/CMSIS/Include/core_cm7.h ****   uint32_t w;                            /*!< Type      used for word access */
 288:Drivers/CMSIS/Include/core_cm7.h **** } APSR_Type;
 289:Drivers/CMSIS/Include/core_cm7.h **** 
 290:Drivers/CMSIS/Include/core_cm7.h **** /* APSR Register Definitions */
 291:Drivers/CMSIS/Include/core_cm7.h **** #define APSR_N_Pos                         31U                                            /*!< APSR
 292:Drivers/CMSIS/Include/core_cm7.h **** #define APSR_N_Msk                         (1UL << APSR_N_Pos)                            /*!< APSR
 293:Drivers/CMSIS/Include/core_cm7.h **** 
 294:Drivers/CMSIS/Include/core_cm7.h **** #define APSR_Z_Pos                         30U                                            /*!< APSR
 295:Drivers/CMSIS/Include/core_cm7.h **** #define APSR_Z_Msk                         (1UL << APSR_Z_Pos)                            /*!< APSR
 296:Drivers/CMSIS/Include/core_cm7.h **** 
 297:Drivers/CMSIS/Include/core_cm7.h **** #define APSR_C_Pos                         29U                                            /*!< APSR
 298:Drivers/CMSIS/Include/core_cm7.h **** #define APSR_C_Msk                         (1UL << APSR_C_Pos)                            /*!< APSR
 299:Drivers/CMSIS/Include/core_cm7.h **** 
 300:Drivers/CMSIS/Include/core_cm7.h **** #define APSR_V_Pos                         28U                                            /*!< APSR
 301:Drivers/CMSIS/Include/core_cm7.h **** #define APSR_V_Msk                         (1UL << APSR_V_Pos)                            /*!< APSR
 302:Drivers/CMSIS/Include/core_cm7.h **** 
 303:Drivers/CMSIS/Include/core_cm7.h **** #define APSR_Q_Pos                         27U                                            /*!< APSR
 304:Drivers/CMSIS/Include/core_cm7.h **** #define APSR_Q_Msk                         (1UL << APSR_Q_Pos)                            /*!< APSR
 305:Drivers/CMSIS/Include/core_cm7.h **** 
 306:Drivers/CMSIS/Include/core_cm7.h **** #define APSR_GE_Pos                        16U                                            /*!< APSR
 307:Drivers/CMSIS/Include/core_cm7.h **** #define APSR_GE_Msk                        (0xFUL << APSR_GE_Pos)                         /*!< APSR
 308:Drivers/CMSIS/Include/core_cm7.h **** 
 309:Drivers/CMSIS/Include/core_cm7.h **** 
 310:Drivers/CMSIS/Include/core_cm7.h **** /**
 311:Drivers/CMSIS/Include/core_cm7.h ****   \brief  Union type to access the Interrupt Program Status Register (IPSR).
 312:Drivers/CMSIS/Include/core_cm7.h ****  */
 313:Drivers/CMSIS/Include/core_cm7.h **** typedef union
 314:Drivers/CMSIS/Include/core_cm7.h **** {
 315:Drivers/CMSIS/Include/core_cm7.h ****   struct
 316:Drivers/CMSIS/Include/core_cm7.h ****   {
 317:Drivers/CMSIS/Include/core_cm7.h ****     uint32_t ISR:9;                      /*!< bit:  0.. 8  Exception number */
 318:Drivers/CMSIS/Include/core_cm7.h ****     uint32_t _reserved0:23;              /*!< bit:  9..31  Reserved */
 319:Drivers/CMSIS/Include/core_cm7.h ****   } b;                                   /*!< Structure used for bit  access */
 320:Drivers/CMSIS/Include/core_cm7.h ****   uint32_t w;                            /*!< Type      used for word access */
 321:Drivers/CMSIS/Include/core_cm7.h **** } IPSR_Type;
 322:Drivers/CMSIS/Include/core_cm7.h **** 
 323:Drivers/CMSIS/Include/core_cm7.h **** /* IPSR Register Definitions */
 324:Drivers/CMSIS/Include/core_cm7.h **** #define IPSR_ISR_Pos                        0U                                            /*!< IPSR
 325:Drivers/CMSIS/Include/core_cm7.h **** #define IPSR_ISR_Msk                       (0x1FFUL /*<< IPSR_ISR_Pos*/)                  /*!< IPSR
 326:Drivers/CMSIS/Include/core_cm7.h **** 
 327:Drivers/CMSIS/Include/core_cm7.h **** 
 328:Drivers/CMSIS/Include/core_cm7.h **** /**
 329:Drivers/CMSIS/Include/core_cm7.h ****   \brief  Union type to access the Special-Purpose Program Status Registers (xPSR).
 330:Drivers/CMSIS/Include/core_cm7.h ****  */
 331:Drivers/CMSIS/Include/core_cm7.h **** typedef union
 332:Drivers/CMSIS/Include/core_cm7.h **** {
 333:Drivers/CMSIS/Include/core_cm7.h ****   struct
 334:Drivers/CMSIS/Include/core_cm7.h ****   {
 335:Drivers/CMSIS/Include/core_cm7.h ****     uint32_t ISR:9;                      /*!< bit:  0.. 8  Exception number */
 336:Drivers/CMSIS/Include/core_cm7.h ****     uint32_t _reserved0:1;               /*!< bit:      9  Reserved */
 337:Drivers/CMSIS/Include/core_cm7.h ****     uint32_t ICI_IT_1:6;                 /*!< bit: 10..15  ICI/IT part 1 */
 338:Drivers/CMSIS/Include/core_cm7.h ****     uint32_t GE:4;                       /*!< bit: 16..19  Greater than or Equal flags */
 339:Drivers/CMSIS/Include/core_cm7.h ****     uint32_t _reserved1:4;               /*!< bit: 20..23  Reserved */
 340:Drivers/CMSIS/Include/core_cm7.h ****     uint32_t T:1;                        /*!< bit:     24  Thumb bit */
 341:Drivers/CMSIS/Include/core_cm7.h ****     uint32_t ICI_IT_2:2;                 /*!< bit: 25..26  ICI/IT part 2 */
 342:Drivers/CMSIS/Include/core_cm7.h ****     uint32_t Q:1;                        /*!< bit:     27  Saturation condition flag */
ARM GAS  /var/folders/4f/bvl6__ys6qq7h5n0wwljfc200000gn/T//cchNM4Pb.s 			page 34


 343:Drivers/CMSIS/Include/core_cm7.h ****     uint32_t V:1;                        /*!< bit:     28  Overflow condition code flag */
 344:Drivers/CMSIS/Include/core_cm7.h ****     uint32_t C:1;                        /*!< bit:     29  Carry condition code flag */
 345:Drivers/CMSIS/Include/core_cm7.h ****     uint32_t Z:1;                        /*!< bit:     30  Zero condition code flag */
 346:Drivers/CMSIS/Include/core_cm7.h ****     uint32_t N:1;                        /*!< bit:     31  Negative condition code flag */
 347:Drivers/CMSIS/Include/core_cm7.h ****   } b;                                   /*!< Structure used for bit  access */
 348:Drivers/CMSIS/Include/core_cm7.h ****   uint32_t w;                            /*!< Type      used for word access */
 349:Drivers/CMSIS/Include/core_cm7.h **** } xPSR_Type;
 350:Drivers/CMSIS/Include/core_cm7.h **** 
 351:Drivers/CMSIS/Include/core_cm7.h **** /* xPSR Register Definitions */
 352:Drivers/CMSIS/Include/core_cm7.h **** #define xPSR_N_Pos                         31U                                            /*!< xPSR
 353:Drivers/CMSIS/Include/core_cm7.h **** #define xPSR_N_Msk                         (1UL << xPSR_N_Pos)                            /*!< xPSR
 354:Drivers/CMSIS/Include/core_cm7.h **** 
 355:Drivers/CMSIS/Include/core_cm7.h **** #define xPSR_Z_Pos                         30U                                            /*!< xPSR
 356:Drivers/CMSIS/Include/core_cm7.h **** #define xPSR_Z_Msk                         (1UL << xPSR_Z_Pos)                            /*!< xPSR
 357:Drivers/CMSIS/Include/core_cm7.h **** 
 358:Drivers/CMSIS/Include/core_cm7.h **** #define xPSR_C_Pos                         29U                                            /*!< xPSR
 359:Drivers/CMSIS/Include/core_cm7.h **** #define xPSR_C_Msk                         (1UL << xPSR_C_Pos)                            /*!< xPSR
 360:Drivers/CMSIS/Include/core_cm7.h **** 
 361:Drivers/CMSIS/Include/core_cm7.h **** #define xPSR_V_Pos                         28U                                            /*!< xPSR
 362:Drivers/CMSIS/Include/core_cm7.h **** #define xPSR_V_Msk                         (1UL << xPSR_V_Pos)                            /*!< xPSR
 363:Drivers/CMSIS/Include/core_cm7.h **** 
 364:Drivers/CMSIS/Include/core_cm7.h **** #define xPSR_Q_Pos                         27U                                            /*!< xPSR
 365:Drivers/CMSIS/Include/core_cm7.h **** #define xPSR_Q_Msk                         (1UL << xPSR_Q_Pos)                            /*!< xPSR
 366:Drivers/CMSIS/Include/core_cm7.h **** 
 367:Drivers/CMSIS/Include/core_cm7.h **** #define xPSR_ICI_IT_2_Pos                  25U                                            /*!< xPSR
 368:Drivers/CMSIS/Include/core_cm7.h **** #define xPSR_ICI_IT_2_Msk                  (3UL << xPSR_ICI_IT_2_Pos)                     /*!< xPSR
 369:Drivers/CMSIS/Include/core_cm7.h **** 
 370:Drivers/CMSIS/Include/core_cm7.h **** #define xPSR_T_Pos                         24U                                            /*!< xPSR
 371:Drivers/CMSIS/Include/core_cm7.h **** #define xPSR_T_Msk                         (1UL << xPSR_T_Pos)                            /*!< xPSR
 372:Drivers/CMSIS/Include/core_cm7.h **** 
 373:Drivers/CMSIS/Include/core_cm7.h **** #define xPSR_GE_Pos                        16U                                            /*!< xPSR
 374:Drivers/CMSIS/Include/core_cm7.h **** #define xPSR_GE_Msk                        (0xFUL << xPSR_GE_Pos)                         /*!< xPSR
 375:Drivers/CMSIS/Include/core_cm7.h **** 
 376:Drivers/CMSIS/Include/core_cm7.h **** #define xPSR_ICI_IT_1_Pos                  10U                                            /*!< xPSR
 377:Drivers/CMSIS/Include/core_cm7.h **** #define xPSR_ICI_IT_1_Msk                  (0x3FUL << xPSR_ICI_IT_1_Pos)                  /*!< xPSR
 378:Drivers/CMSIS/Include/core_cm7.h **** 
 379:Drivers/CMSIS/Include/core_cm7.h **** #define xPSR_ISR_Pos                        0U                                            /*!< xPSR
 380:Drivers/CMSIS/Include/core_cm7.h **** #define xPSR_ISR_Msk                       (0x1FFUL /*<< xPSR_ISR_Pos*/)                  /*!< xPSR
 381:Drivers/CMSIS/Include/core_cm7.h **** 
 382:Drivers/CMSIS/Include/core_cm7.h **** 
 383:Drivers/CMSIS/Include/core_cm7.h **** /**
 384:Drivers/CMSIS/Include/core_cm7.h ****   \brief  Union type to access the Control Registers (CONTROL).
 385:Drivers/CMSIS/Include/core_cm7.h ****  */
 386:Drivers/CMSIS/Include/core_cm7.h **** typedef union
 387:Drivers/CMSIS/Include/core_cm7.h **** {
 388:Drivers/CMSIS/Include/core_cm7.h ****   struct
 389:Drivers/CMSIS/Include/core_cm7.h ****   {
 390:Drivers/CMSIS/Include/core_cm7.h ****     uint32_t nPRIV:1;                    /*!< bit:      0  Execution privilege in Thread mode */
 391:Drivers/CMSIS/Include/core_cm7.h ****     uint32_t SPSEL:1;                    /*!< bit:      1  Stack to be used */
 392:Drivers/CMSIS/Include/core_cm7.h ****     uint32_t FPCA:1;                     /*!< bit:      2  FP extension active flag */
 393:Drivers/CMSIS/Include/core_cm7.h ****     uint32_t _reserved0:29;              /*!< bit:  3..31  Reserved */
 394:Drivers/CMSIS/Include/core_cm7.h ****   } b;                                   /*!< Structure used for bit  access */
 395:Drivers/CMSIS/Include/core_cm7.h ****   uint32_t w;                            /*!< Type      used for word access */
 396:Drivers/CMSIS/Include/core_cm7.h **** } CONTROL_Type;
 397:Drivers/CMSIS/Include/core_cm7.h **** 
 398:Drivers/CMSIS/Include/core_cm7.h **** /* CONTROL Register Definitions */
 399:Drivers/CMSIS/Include/core_cm7.h **** #define CONTROL_FPCA_Pos                    2U                                            /*!< CONT
ARM GAS  /var/folders/4f/bvl6__ys6qq7h5n0wwljfc200000gn/T//cchNM4Pb.s 			page 35


 400:Drivers/CMSIS/Include/core_cm7.h **** #define CONTROL_FPCA_Msk                   (1UL << CONTROL_FPCA_Pos)                      /*!< CONT
 401:Drivers/CMSIS/Include/core_cm7.h **** 
 402:Drivers/CMSIS/Include/core_cm7.h **** #define CONTROL_SPSEL_Pos                   1U                                            /*!< CONT
 403:Drivers/CMSIS/Include/core_cm7.h **** #define CONTROL_SPSEL_Msk                  (1UL << CONTROL_SPSEL_Pos)                     /*!< CONT
 404:Drivers/CMSIS/Include/core_cm7.h **** 
 405:Drivers/CMSIS/Include/core_cm7.h **** #define CONTROL_nPRIV_Pos                   0U                                            /*!< CONT
 406:Drivers/CMSIS/Include/core_cm7.h **** #define CONTROL_nPRIV_Msk                  (1UL /*<< CONTROL_nPRIV_Pos*/)                 /*!< CONT
 407:Drivers/CMSIS/Include/core_cm7.h **** 
 408:Drivers/CMSIS/Include/core_cm7.h **** /*@} end of group CMSIS_CORE */
 409:Drivers/CMSIS/Include/core_cm7.h **** 
 410:Drivers/CMSIS/Include/core_cm7.h **** 
 411:Drivers/CMSIS/Include/core_cm7.h **** /**
 412:Drivers/CMSIS/Include/core_cm7.h ****   \ingroup    CMSIS_core_register
 413:Drivers/CMSIS/Include/core_cm7.h ****   \defgroup   CMSIS_NVIC  Nested Vectored Interrupt Controller (NVIC)
 414:Drivers/CMSIS/Include/core_cm7.h ****   \brief      Type definitions for the NVIC Registers
 415:Drivers/CMSIS/Include/core_cm7.h ****   @{
 416:Drivers/CMSIS/Include/core_cm7.h ****  */
 417:Drivers/CMSIS/Include/core_cm7.h **** 
 418:Drivers/CMSIS/Include/core_cm7.h **** /**
 419:Drivers/CMSIS/Include/core_cm7.h ****   \brief  Structure type to access the Nested Vectored Interrupt Controller (NVIC).
 420:Drivers/CMSIS/Include/core_cm7.h ****  */
 421:Drivers/CMSIS/Include/core_cm7.h **** typedef struct
 422:Drivers/CMSIS/Include/core_cm7.h **** {
 423:Drivers/CMSIS/Include/core_cm7.h ****   __IOM uint32_t ISER[8U];               /*!< Offset: 0x000 (R/W)  Interrupt Set Enable Register */
 424:Drivers/CMSIS/Include/core_cm7.h ****         uint32_t RESERVED0[24U];
 425:Drivers/CMSIS/Include/core_cm7.h ****   __IOM uint32_t ICER[8U];               /*!< Offset: 0x080 (R/W)  Interrupt Clear Enable Register 
 426:Drivers/CMSIS/Include/core_cm7.h ****         uint32_t RSERVED1[24U];
 427:Drivers/CMSIS/Include/core_cm7.h ****   __IOM uint32_t ISPR[8U];               /*!< Offset: 0x100 (R/W)  Interrupt Set Pending Register *
 428:Drivers/CMSIS/Include/core_cm7.h ****         uint32_t RESERVED2[24U];
 429:Drivers/CMSIS/Include/core_cm7.h ****   __IOM uint32_t ICPR[8U];               /*!< Offset: 0x180 (R/W)  Interrupt Clear Pending Register
 430:Drivers/CMSIS/Include/core_cm7.h ****         uint32_t RESERVED3[24U];
 431:Drivers/CMSIS/Include/core_cm7.h ****   __IOM uint32_t IABR[8U];               /*!< Offset: 0x200 (R/W)  Interrupt Active bit Register */
 432:Drivers/CMSIS/Include/core_cm7.h ****         uint32_t RESERVED4[56U];
 433:Drivers/CMSIS/Include/core_cm7.h ****   __IOM uint8_t  IP[240U];               /*!< Offset: 0x300 (R/W)  Interrupt Priority Register (8Bi
 434:Drivers/CMSIS/Include/core_cm7.h ****         uint32_t RESERVED5[644U];
 435:Drivers/CMSIS/Include/core_cm7.h ****   __OM  uint32_t STIR;                   /*!< Offset: 0xE00 ( /W)  Software Trigger Interrupt Regis
 436:Drivers/CMSIS/Include/core_cm7.h **** }  NVIC_Type;
 437:Drivers/CMSIS/Include/core_cm7.h **** 
 438:Drivers/CMSIS/Include/core_cm7.h **** /* Software Triggered Interrupt Register Definitions */
 439:Drivers/CMSIS/Include/core_cm7.h **** #define NVIC_STIR_INTID_Pos                 0U                                         /*!< STIR: I
 440:Drivers/CMSIS/Include/core_cm7.h **** #define NVIC_STIR_INTID_Msk                (0x1FFUL /*<< NVIC_STIR_INTID_Pos*/)        /*!< STIR: I
 441:Drivers/CMSIS/Include/core_cm7.h **** 
 442:Drivers/CMSIS/Include/core_cm7.h **** /*@} end of group CMSIS_NVIC */
 443:Drivers/CMSIS/Include/core_cm7.h **** 
 444:Drivers/CMSIS/Include/core_cm7.h **** 
 445:Drivers/CMSIS/Include/core_cm7.h **** /**
 446:Drivers/CMSIS/Include/core_cm7.h ****   \ingroup  CMSIS_core_register
 447:Drivers/CMSIS/Include/core_cm7.h ****   \defgroup CMSIS_SCB     System Control Block (SCB)
 448:Drivers/CMSIS/Include/core_cm7.h ****   \brief    Type definitions for the System Control Block Registers
 449:Drivers/CMSIS/Include/core_cm7.h ****   @{
 450:Drivers/CMSIS/Include/core_cm7.h ****  */
 451:Drivers/CMSIS/Include/core_cm7.h **** 
 452:Drivers/CMSIS/Include/core_cm7.h **** /**
 453:Drivers/CMSIS/Include/core_cm7.h ****   \brief  Structure type to access the System Control Block (SCB).
 454:Drivers/CMSIS/Include/core_cm7.h ****  */
 455:Drivers/CMSIS/Include/core_cm7.h **** typedef struct
 456:Drivers/CMSIS/Include/core_cm7.h **** {
ARM GAS  /var/folders/4f/bvl6__ys6qq7h5n0wwljfc200000gn/T//cchNM4Pb.s 			page 36


 457:Drivers/CMSIS/Include/core_cm7.h ****   __IM  uint32_t CPUID;                  /*!< Offset: 0x000 (R/ )  CPUID Base Register */
 458:Drivers/CMSIS/Include/core_cm7.h ****   __IOM uint32_t ICSR;                   /*!< Offset: 0x004 (R/W)  Interrupt Control and State Regi
 459:Drivers/CMSIS/Include/core_cm7.h ****   __IOM uint32_t VTOR;                   /*!< Offset: 0x008 (R/W)  Vector Table Offset Register */
 460:Drivers/CMSIS/Include/core_cm7.h ****   __IOM uint32_t AIRCR;                  /*!< Offset: 0x00C (R/W)  Application Interrupt and Reset 
 461:Drivers/CMSIS/Include/core_cm7.h ****   __IOM uint32_t SCR;                    /*!< Offset: 0x010 (R/W)  System Control Register */
 462:Drivers/CMSIS/Include/core_cm7.h ****   __IOM uint32_t CCR;                    /*!< Offset: 0x014 (R/W)  Configuration Control Register *
 463:Drivers/CMSIS/Include/core_cm7.h ****   __IOM uint8_t  SHPR[12U];              /*!< Offset: 0x018 (R/W)  System Handlers Priority Registe
 464:Drivers/CMSIS/Include/core_cm7.h ****   __IOM uint32_t SHCSR;                  /*!< Offset: 0x024 (R/W)  System Handler Control and State
 465:Drivers/CMSIS/Include/core_cm7.h ****   __IOM uint32_t CFSR;                   /*!< Offset: 0x028 (R/W)  Configurable Fault Status Regist
 466:Drivers/CMSIS/Include/core_cm7.h ****   __IOM uint32_t HFSR;                   /*!< Offset: 0x02C (R/W)  HardFault Status Register */
 467:Drivers/CMSIS/Include/core_cm7.h ****   __IOM uint32_t DFSR;                   /*!< Offset: 0x030 (R/W)  Debug Fault Status Register */
 468:Drivers/CMSIS/Include/core_cm7.h ****   __IOM uint32_t MMFAR;                  /*!< Offset: 0x034 (R/W)  MemManage Fault Address Register
 469:Drivers/CMSIS/Include/core_cm7.h ****   __IOM uint32_t BFAR;                   /*!< Offset: 0x038 (R/W)  BusFault Address Register */
 470:Drivers/CMSIS/Include/core_cm7.h ****   __IOM uint32_t AFSR;                   /*!< Offset: 0x03C (R/W)  Auxiliary Fault Status Register 
 471:Drivers/CMSIS/Include/core_cm7.h ****   __IM  uint32_t ID_PFR[2U];             /*!< Offset: 0x040 (R/ )  Processor Feature Register */
 472:Drivers/CMSIS/Include/core_cm7.h ****   __IM  uint32_t ID_DFR;                 /*!< Offset: 0x048 (R/ )  Debug Feature Register */
 473:Drivers/CMSIS/Include/core_cm7.h ****   __IM  uint32_t ID_AFR;                 /*!< Offset: 0x04C (R/ )  Auxiliary Feature Register */
 474:Drivers/CMSIS/Include/core_cm7.h ****   __IM  uint32_t ID_MFR[4U];             /*!< Offset: 0x050 (R/ )  Memory Model Feature Register */
 475:Drivers/CMSIS/Include/core_cm7.h ****   __IM  uint32_t ID_ISAR[5U];            /*!< Offset: 0x060 (R/ )  Instruction Set Attributes Regis
 476:Drivers/CMSIS/Include/core_cm7.h ****         uint32_t RESERVED0[1U];
 477:Drivers/CMSIS/Include/core_cm7.h ****   __IM  uint32_t CLIDR;                  /*!< Offset: 0x078 (R/ )  Cache Level ID register */
 478:Drivers/CMSIS/Include/core_cm7.h ****   __IM  uint32_t CTR;                    /*!< Offset: 0x07C (R/ )  Cache Type register */
 479:Drivers/CMSIS/Include/core_cm7.h ****   __IM  uint32_t CCSIDR;                 /*!< Offset: 0x080 (R/ )  Cache Size ID Register */
 480:Drivers/CMSIS/Include/core_cm7.h ****   __IOM uint32_t CSSELR;                 /*!< Offset: 0x084 (R/W)  Cache Size Selection Register */
 481:Drivers/CMSIS/Include/core_cm7.h ****   __IOM uint32_t CPACR;                  /*!< Offset: 0x088 (R/W)  Coprocessor Access Control Regis
 482:Drivers/CMSIS/Include/core_cm7.h ****         uint32_t RESERVED3[93U];
 483:Drivers/CMSIS/Include/core_cm7.h ****   __OM  uint32_t STIR;                   /*!< Offset: 0x200 ( /W)  Software Triggered Interrupt Reg
 484:Drivers/CMSIS/Include/core_cm7.h ****         uint32_t RESERVED4[15U];
 485:Drivers/CMSIS/Include/core_cm7.h ****   __IM  uint32_t MVFR0;                  /*!< Offset: 0x240 (R/ )  Media and VFP Feature Register 0
 486:Drivers/CMSIS/Include/core_cm7.h ****   __IM  uint32_t MVFR1;                  /*!< Offset: 0x244 (R/ )  Media and VFP Feature Register 1
 487:Drivers/CMSIS/Include/core_cm7.h ****   __IM  uint32_t MVFR2;                  /*!< Offset: 0x248 (R/ )  Media and VFP Feature Register 2
 488:Drivers/CMSIS/Include/core_cm7.h ****         uint32_t RESERVED5[1U];
 489:Drivers/CMSIS/Include/core_cm7.h ****   __OM  uint32_t ICIALLU;                /*!< Offset: 0x250 ( /W)  I-Cache Invalidate All to PoU */
 490:Drivers/CMSIS/Include/core_cm7.h ****         uint32_t RESERVED6[1U];
 491:Drivers/CMSIS/Include/core_cm7.h ****   __OM  uint32_t ICIMVAU;                /*!< Offset: 0x258 ( /W)  I-Cache Invalidate by MVA to PoU
 492:Drivers/CMSIS/Include/core_cm7.h ****   __OM  uint32_t DCIMVAC;                /*!< Offset: 0x25C ( /W)  D-Cache Invalidate by MVA to PoC
 493:Drivers/CMSIS/Include/core_cm7.h ****   __OM  uint32_t DCISW;                  /*!< Offset: 0x260 ( /W)  D-Cache Invalidate by Set-way */
 494:Drivers/CMSIS/Include/core_cm7.h ****   __OM  uint32_t DCCMVAU;                /*!< Offset: 0x264 ( /W)  D-Cache Clean by MVA to PoU */
 495:Drivers/CMSIS/Include/core_cm7.h ****   __OM  uint32_t DCCMVAC;                /*!< Offset: 0x268 ( /W)  D-Cache Clean by MVA to PoC */
 496:Drivers/CMSIS/Include/core_cm7.h ****   __OM  uint32_t DCCSW;                  /*!< Offset: 0x26C ( /W)  D-Cache Clean by Set-way */
 497:Drivers/CMSIS/Include/core_cm7.h ****   __OM  uint32_t DCCIMVAC;               /*!< Offset: 0x270 ( /W)  D-Cache Clean and Invalidate by 
 498:Drivers/CMSIS/Include/core_cm7.h ****   __OM  uint32_t DCCISW;                 /*!< Offset: 0x274 ( /W)  D-Cache Clean and Invalidate by 
 499:Drivers/CMSIS/Include/core_cm7.h ****         uint32_t RESERVED7[6U];
 500:Drivers/CMSIS/Include/core_cm7.h ****   __IOM uint32_t ITCMCR;                 /*!< Offset: 0x290 (R/W)  Instruction Tightly-Coupled Memo
 501:Drivers/CMSIS/Include/core_cm7.h ****   __IOM uint32_t DTCMCR;                 /*!< Offset: 0x294 (R/W)  Data Tightly-Coupled Memory Cont
 502:Drivers/CMSIS/Include/core_cm7.h ****   __IOM uint32_t AHBPCR;                 /*!< Offset: 0x298 (R/W)  AHBP Control Register */
 503:Drivers/CMSIS/Include/core_cm7.h ****   __IOM uint32_t CACR;                   /*!< Offset: 0x29C (R/W)  L1 Cache Control Register */
 504:Drivers/CMSIS/Include/core_cm7.h ****   __IOM uint32_t AHBSCR;                 /*!< Offset: 0x2A0 (R/W)  AHB Slave Control Register */
 505:Drivers/CMSIS/Include/core_cm7.h ****         uint32_t RESERVED8[1U];
 506:Drivers/CMSIS/Include/core_cm7.h ****   __IOM uint32_t ABFSR;                  /*!< Offset: 0x2A8 (R/W)  Auxiliary Bus Fault Status Regis
 507:Drivers/CMSIS/Include/core_cm7.h **** } SCB_Type;
 508:Drivers/CMSIS/Include/core_cm7.h **** 
 509:Drivers/CMSIS/Include/core_cm7.h **** /* SCB CPUID Register Definitions */
 510:Drivers/CMSIS/Include/core_cm7.h **** #define SCB_CPUID_IMPLEMENTER_Pos          24U                                            /*!< SCB 
 511:Drivers/CMSIS/Include/core_cm7.h **** #define SCB_CPUID_IMPLEMENTER_Msk          (0xFFUL << SCB_CPUID_IMPLEMENTER_Pos)          /*!< SCB 
 512:Drivers/CMSIS/Include/core_cm7.h **** 
 513:Drivers/CMSIS/Include/core_cm7.h **** #define SCB_CPUID_VARIANT_Pos              20U                                            /*!< SCB 
ARM GAS  /var/folders/4f/bvl6__ys6qq7h5n0wwljfc200000gn/T//cchNM4Pb.s 			page 37


 514:Drivers/CMSIS/Include/core_cm7.h **** #define SCB_CPUID_VARIANT_Msk              (0xFUL << SCB_CPUID_VARIANT_Pos)               /*!< SCB 
 515:Drivers/CMSIS/Include/core_cm7.h **** 
 516:Drivers/CMSIS/Include/core_cm7.h **** #define SCB_CPUID_ARCHITECTURE_Pos         16U                                            /*!< SCB 
 517:Drivers/CMSIS/Include/core_cm7.h **** #define SCB_CPUID_ARCHITECTURE_Msk         (0xFUL << SCB_CPUID_ARCHITECTURE_Pos)          /*!< SCB 
 518:Drivers/CMSIS/Include/core_cm7.h **** 
 519:Drivers/CMSIS/Include/core_cm7.h **** #define SCB_CPUID_PARTNO_Pos                4U                                            /*!< SCB 
 520:Drivers/CMSIS/Include/core_cm7.h **** #define SCB_CPUID_PARTNO_Msk               (0xFFFUL << SCB_CPUID_PARTNO_Pos)              /*!< SCB 
 521:Drivers/CMSIS/Include/core_cm7.h **** 
 522:Drivers/CMSIS/Include/core_cm7.h **** #define SCB_CPUID_REVISION_Pos              0U                                            /*!< SCB 
 523:Drivers/CMSIS/Include/core_cm7.h **** #define SCB_CPUID_REVISION_Msk             (0xFUL /*<< SCB_CPUID_REVISION_Pos*/)          /*!< SCB 
 524:Drivers/CMSIS/Include/core_cm7.h **** 
 525:Drivers/CMSIS/Include/core_cm7.h **** /* SCB Interrupt Control State Register Definitions */
 526:Drivers/CMSIS/Include/core_cm7.h **** #define SCB_ICSR_NMIPENDSET_Pos            31U                                            /*!< SCB 
 527:Drivers/CMSIS/Include/core_cm7.h **** #define SCB_ICSR_NMIPENDSET_Msk            (1UL << SCB_ICSR_NMIPENDSET_Pos)               /*!< SCB 
 528:Drivers/CMSIS/Include/core_cm7.h **** 
 529:Drivers/CMSIS/Include/core_cm7.h **** #define SCB_ICSR_PENDSVSET_Pos             28U                                            /*!< SCB 
 530:Drivers/CMSIS/Include/core_cm7.h **** #define SCB_ICSR_PENDSVSET_Msk             (1UL << SCB_ICSR_PENDSVSET_Pos)                /*!< SCB 
 531:Drivers/CMSIS/Include/core_cm7.h **** 
 532:Drivers/CMSIS/Include/core_cm7.h **** #define SCB_ICSR_PENDSVCLR_Pos             27U                                            /*!< SCB 
 533:Drivers/CMSIS/Include/core_cm7.h **** #define SCB_ICSR_PENDSVCLR_Msk             (1UL << SCB_ICSR_PENDSVCLR_Pos)                /*!< SCB 
 534:Drivers/CMSIS/Include/core_cm7.h **** 
 535:Drivers/CMSIS/Include/core_cm7.h **** #define SCB_ICSR_PENDSTSET_Pos             26U                                            /*!< SCB 
 536:Drivers/CMSIS/Include/core_cm7.h **** #define SCB_ICSR_PENDSTSET_Msk             (1UL << SCB_ICSR_PENDSTSET_Pos)                /*!< SCB 
 537:Drivers/CMSIS/Include/core_cm7.h **** 
 538:Drivers/CMSIS/Include/core_cm7.h **** #define SCB_ICSR_PENDSTCLR_Pos             25U                                            /*!< SCB 
 539:Drivers/CMSIS/Include/core_cm7.h **** #define SCB_ICSR_PENDSTCLR_Msk             (1UL << SCB_ICSR_PENDSTCLR_Pos)                /*!< SCB 
 540:Drivers/CMSIS/Include/core_cm7.h **** 
 541:Drivers/CMSIS/Include/core_cm7.h **** #define SCB_ICSR_ISRPREEMPT_Pos            23U                                            /*!< SCB 
 542:Drivers/CMSIS/Include/core_cm7.h **** #define SCB_ICSR_ISRPREEMPT_Msk            (1UL << SCB_ICSR_ISRPREEMPT_Pos)               /*!< SCB 
 543:Drivers/CMSIS/Include/core_cm7.h **** 
 544:Drivers/CMSIS/Include/core_cm7.h **** #define SCB_ICSR_ISRPENDING_Pos            22U                                            /*!< SCB 
 545:Drivers/CMSIS/Include/core_cm7.h **** #define SCB_ICSR_ISRPENDING_Msk            (1UL << SCB_ICSR_ISRPENDING_Pos)               /*!< SCB 
 546:Drivers/CMSIS/Include/core_cm7.h **** 
 547:Drivers/CMSIS/Include/core_cm7.h **** #define SCB_ICSR_VECTPENDING_Pos           12U                                            /*!< SCB 
 548:Drivers/CMSIS/Include/core_cm7.h **** #define SCB_ICSR_VECTPENDING_Msk           (0x1FFUL << SCB_ICSR_VECTPENDING_Pos)          /*!< SCB 
 549:Drivers/CMSIS/Include/core_cm7.h **** 
 550:Drivers/CMSIS/Include/core_cm7.h **** #define SCB_ICSR_RETTOBASE_Pos             11U                                            /*!< SCB 
 551:Drivers/CMSIS/Include/core_cm7.h **** #define SCB_ICSR_RETTOBASE_Msk             (1UL << SCB_ICSR_RETTOBASE_Pos)                /*!< SCB 
 552:Drivers/CMSIS/Include/core_cm7.h **** 
 553:Drivers/CMSIS/Include/core_cm7.h **** #define SCB_ICSR_VECTACTIVE_Pos             0U                                            /*!< SCB 
 554:Drivers/CMSIS/Include/core_cm7.h **** #define SCB_ICSR_VECTACTIVE_Msk            (0x1FFUL /*<< SCB_ICSR_VECTACTIVE_Pos*/)       /*!< SCB 
 555:Drivers/CMSIS/Include/core_cm7.h **** 
 556:Drivers/CMSIS/Include/core_cm7.h **** /* SCB Vector Table Offset Register Definitions */
 557:Drivers/CMSIS/Include/core_cm7.h **** #define SCB_VTOR_TBLOFF_Pos                 7U                                            /*!< SCB 
 558:Drivers/CMSIS/Include/core_cm7.h **** #define SCB_VTOR_TBLOFF_Msk                (0x1FFFFFFUL << SCB_VTOR_TBLOFF_Pos)           /*!< SCB 
 559:Drivers/CMSIS/Include/core_cm7.h **** 
 560:Drivers/CMSIS/Include/core_cm7.h **** /* SCB Application Interrupt and Reset Control Register Definitions */
 561:Drivers/CMSIS/Include/core_cm7.h **** #define SCB_AIRCR_VECTKEY_Pos              16U                                            /*!< SCB 
 562:Drivers/CMSIS/Include/core_cm7.h **** #define SCB_AIRCR_VECTKEY_Msk              (0xFFFFUL << SCB_AIRCR_VECTKEY_Pos)            /*!< SCB 
 563:Drivers/CMSIS/Include/core_cm7.h **** 
 564:Drivers/CMSIS/Include/core_cm7.h **** #define SCB_AIRCR_VECTKEYSTAT_Pos          16U                                            /*!< SCB 
 565:Drivers/CMSIS/Include/core_cm7.h **** #define SCB_AIRCR_VECTKEYSTAT_Msk          (0xFFFFUL << SCB_AIRCR_VECTKEYSTAT_Pos)        /*!< SCB 
 566:Drivers/CMSIS/Include/core_cm7.h **** 
 567:Drivers/CMSIS/Include/core_cm7.h **** #define SCB_AIRCR_ENDIANESS_Pos            15U                                            /*!< SCB 
 568:Drivers/CMSIS/Include/core_cm7.h **** #define SCB_AIRCR_ENDIANESS_Msk            (1UL << SCB_AIRCR_ENDIANESS_Pos)               /*!< SCB 
 569:Drivers/CMSIS/Include/core_cm7.h **** 
 570:Drivers/CMSIS/Include/core_cm7.h **** #define SCB_AIRCR_PRIGROUP_Pos              8U                                            /*!< SCB 
ARM GAS  /var/folders/4f/bvl6__ys6qq7h5n0wwljfc200000gn/T//cchNM4Pb.s 			page 38


 571:Drivers/CMSIS/Include/core_cm7.h **** #define SCB_AIRCR_PRIGROUP_Msk             (7UL << SCB_AIRCR_PRIGROUP_Pos)                /*!< SCB 
 572:Drivers/CMSIS/Include/core_cm7.h **** 
 573:Drivers/CMSIS/Include/core_cm7.h **** #define SCB_AIRCR_SYSRESETREQ_Pos           2U                                            /*!< SCB 
 574:Drivers/CMSIS/Include/core_cm7.h **** #define SCB_AIRCR_SYSRESETREQ_Msk          (1UL << SCB_AIRCR_SYSRESETREQ_Pos)             /*!< SCB 
 575:Drivers/CMSIS/Include/core_cm7.h **** 
 576:Drivers/CMSIS/Include/core_cm7.h **** #define SCB_AIRCR_VECTCLRACTIVE_Pos         1U                                            /*!< SCB 
 577:Drivers/CMSIS/Include/core_cm7.h **** #define SCB_AIRCR_VECTCLRACTIVE_Msk        (1UL << SCB_AIRCR_VECTCLRACTIVE_Pos)           /*!< SCB 
 578:Drivers/CMSIS/Include/core_cm7.h **** 
 579:Drivers/CMSIS/Include/core_cm7.h **** #define SCB_AIRCR_VECTRESET_Pos             0U                                            /*!< SCB 
 580:Drivers/CMSIS/Include/core_cm7.h **** #define SCB_AIRCR_VECTRESET_Msk            (1UL /*<< SCB_AIRCR_VECTRESET_Pos*/)           /*!< SCB 
 581:Drivers/CMSIS/Include/core_cm7.h **** 
 582:Drivers/CMSIS/Include/core_cm7.h **** /* SCB System Control Register Definitions */
 583:Drivers/CMSIS/Include/core_cm7.h **** #define SCB_SCR_SEVONPEND_Pos               4U                                            /*!< SCB 
 584:Drivers/CMSIS/Include/core_cm7.h **** #define SCB_SCR_SEVONPEND_Msk              (1UL << SCB_SCR_SEVONPEND_Pos)                 /*!< SCB 
 585:Drivers/CMSIS/Include/core_cm7.h **** 
 586:Drivers/CMSIS/Include/core_cm7.h **** #define SCB_SCR_SLEEPDEEP_Pos               2U                                            /*!< SCB 
 587:Drivers/CMSIS/Include/core_cm7.h **** #define SCB_SCR_SLEEPDEEP_Msk              (1UL << SCB_SCR_SLEEPDEEP_Pos)                 /*!< SCB 
 588:Drivers/CMSIS/Include/core_cm7.h **** 
 589:Drivers/CMSIS/Include/core_cm7.h **** #define SCB_SCR_SLEEPONEXIT_Pos             1U                                            /*!< SCB 
 590:Drivers/CMSIS/Include/core_cm7.h **** #define SCB_SCR_SLEEPONEXIT_Msk            (1UL << SCB_SCR_SLEEPONEXIT_Pos)               /*!< SCB 
 591:Drivers/CMSIS/Include/core_cm7.h **** 
 592:Drivers/CMSIS/Include/core_cm7.h **** /* SCB Configuration Control Register Definitions */
 593:Drivers/CMSIS/Include/core_cm7.h **** #define SCB_CCR_BP_Pos                      18U                                           /*!< SCB 
 594:Drivers/CMSIS/Include/core_cm7.h **** #define SCB_CCR_BP_Msk                     (1UL << SCB_CCR_BP_Pos)                        /*!< SCB 
 595:Drivers/CMSIS/Include/core_cm7.h **** 
 596:Drivers/CMSIS/Include/core_cm7.h **** #define SCB_CCR_IC_Pos                      17U                                           /*!< SCB 
 597:Drivers/CMSIS/Include/core_cm7.h **** #define SCB_CCR_IC_Msk                     (1UL << SCB_CCR_IC_Pos)                        /*!< SCB 
 598:Drivers/CMSIS/Include/core_cm7.h **** 
 599:Drivers/CMSIS/Include/core_cm7.h **** #define SCB_CCR_DC_Pos                      16U                                           /*!< SCB 
 600:Drivers/CMSIS/Include/core_cm7.h **** #define SCB_CCR_DC_Msk                     (1UL << SCB_CCR_DC_Pos)                        /*!< SCB 
 601:Drivers/CMSIS/Include/core_cm7.h **** 
 602:Drivers/CMSIS/Include/core_cm7.h **** #define SCB_CCR_STKALIGN_Pos                9U                                            /*!< SCB 
 603:Drivers/CMSIS/Include/core_cm7.h **** #define SCB_CCR_STKALIGN_Msk               (1UL << SCB_CCR_STKALIGN_Pos)                  /*!< SCB 
 604:Drivers/CMSIS/Include/core_cm7.h **** 
 605:Drivers/CMSIS/Include/core_cm7.h **** #define SCB_CCR_BFHFNMIGN_Pos               8U                                            /*!< SCB 
 606:Drivers/CMSIS/Include/core_cm7.h **** #define SCB_CCR_BFHFNMIGN_Msk              (1UL << SCB_CCR_BFHFNMIGN_Pos)                 /*!< SCB 
 607:Drivers/CMSIS/Include/core_cm7.h **** 
 608:Drivers/CMSIS/Include/core_cm7.h **** #define SCB_CCR_DIV_0_TRP_Pos               4U                                            /*!< SCB 
 609:Drivers/CMSIS/Include/core_cm7.h **** #define SCB_CCR_DIV_0_TRP_Msk              (1UL << SCB_CCR_DIV_0_TRP_Pos)                 /*!< SCB 
 610:Drivers/CMSIS/Include/core_cm7.h **** 
 611:Drivers/CMSIS/Include/core_cm7.h **** #define SCB_CCR_UNALIGN_TRP_Pos             3U                                            /*!< SCB 
 612:Drivers/CMSIS/Include/core_cm7.h **** #define SCB_CCR_UNALIGN_TRP_Msk            (1UL << SCB_CCR_UNALIGN_TRP_Pos)               /*!< SCB 
 613:Drivers/CMSIS/Include/core_cm7.h **** 
 614:Drivers/CMSIS/Include/core_cm7.h **** #define SCB_CCR_USERSETMPEND_Pos            1U                                            /*!< SCB 
 615:Drivers/CMSIS/Include/core_cm7.h **** #define SCB_CCR_USERSETMPEND_Msk           (1UL << SCB_CCR_USERSETMPEND_Pos)              /*!< SCB 
 616:Drivers/CMSIS/Include/core_cm7.h **** 
 617:Drivers/CMSIS/Include/core_cm7.h **** #define SCB_CCR_NONBASETHRDENA_Pos          0U                                            /*!< SCB 
 618:Drivers/CMSIS/Include/core_cm7.h **** #define SCB_CCR_NONBASETHRDENA_Msk         (1UL /*<< SCB_CCR_NONBASETHRDENA_Pos*/)        /*!< SCB 
 619:Drivers/CMSIS/Include/core_cm7.h **** 
 620:Drivers/CMSIS/Include/core_cm7.h **** /* SCB System Handler Control and State Register Definitions */
 621:Drivers/CMSIS/Include/core_cm7.h **** #define SCB_SHCSR_USGFAULTENA_Pos          18U                                            /*!< SCB 
 622:Drivers/CMSIS/Include/core_cm7.h **** #define SCB_SHCSR_USGFAULTENA_Msk          (1UL << SCB_SHCSR_USGFAULTENA_Pos)             /*!< SCB 
 623:Drivers/CMSIS/Include/core_cm7.h **** 
 624:Drivers/CMSIS/Include/core_cm7.h **** #define SCB_SHCSR_BUSFAULTENA_Pos          17U                                            /*!< SCB 
 625:Drivers/CMSIS/Include/core_cm7.h **** #define SCB_SHCSR_BUSFAULTENA_Msk          (1UL << SCB_SHCSR_BUSFAULTENA_Pos)             /*!< SCB 
 626:Drivers/CMSIS/Include/core_cm7.h **** 
 627:Drivers/CMSIS/Include/core_cm7.h **** #define SCB_SHCSR_MEMFAULTENA_Pos          16U                                            /*!< SCB 
ARM GAS  /var/folders/4f/bvl6__ys6qq7h5n0wwljfc200000gn/T//cchNM4Pb.s 			page 39


 628:Drivers/CMSIS/Include/core_cm7.h **** #define SCB_SHCSR_MEMFAULTENA_Msk          (1UL << SCB_SHCSR_MEMFAULTENA_Pos)             /*!< SCB 
 629:Drivers/CMSIS/Include/core_cm7.h **** 
 630:Drivers/CMSIS/Include/core_cm7.h **** #define SCB_SHCSR_SVCALLPENDED_Pos         15U                                            /*!< SCB 
 631:Drivers/CMSIS/Include/core_cm7.h **** #define SCB_SHCSR_SVCALLPENDED_Msk         (1UL << SCB_SHCSR_SVCALLPENDED_Pos)            /*!< SCB 
 632:Drivers/CMSIS/Include/core_cm7.h **** 
 633:Drivers/CMSIS/Include/core_cm7.h **** #define SCB_SHCSR_BUSFAULTPENDED_Pos       14U                                            /*!< SCB 
 634:Drivers/CMSIS/Include/core_cm7.h **** #define SCB_SHCSR_BUSFAULTPENDED_Msk       (1UL << SCB_SHCSR_BUSFAULTPENDED_Pos)          /*!< SCB 
 635:Drivers/CMSIS/Include/core_cm7.h **** 
 636:Drivers/CMSIS/Include/core_cm7.h **** #define SCB_SHCSR_MEMFAULTPENDED_Pos       13U                                            /*!< SCB 
 637:Drivers/CMSIS/Include/core_cm7.h **** #define SCB_SHCSR_MEMFAULTPENDED_Msk       (1UL << SCB_SHCSR_MEMFAULTPENDED_Pos)          /*!< SCB 
 638:Drivers/CMSIS/Include/core_cm7.h **** 
 639:Drivers/CMSIS/Include/core_cm7.h **** #define SCB_SHCSR_USGFAULTPENDED_Pos       12U                                            /*!< SCB 
 640:Drivers/CMSIS/Include/core_cm7.h **** #define SCB_SHCSR_USGFAULTPENDED_Msk       (1UL << SCB_SHCSR_USGFAULTPENDED_Pos)          /*!< SCB 
 641:Drivers/CMSIS/Include/core_cm7.h **** 
 642:Drivers/CMSIS/Include/core_cm7.h **** #define SCB_SHCSR_SYSTICKACT_Pos           11U                                            /*!< SCB 
 643:Drivers/CMSIS/Include/core_cm7.h **** #define SCB_SHCSR_SYSTICKACT_Msk           (1UL << SCB_SHCSR_SYSTICKACT_Pos)              /*!< SCB 
 644:Drivers/CMSIS/Include/core_cm7.h **** 
 645:Drivers/CMSIS/Include/core_cm7.h **** #define SCB_SHCSR_PENDSVACT_Pos            10U                                            /*!< SCB 
 646:Drivers/CMSIS/Include/core_cm7.h **** #define SCB_SHCSR_PENDSVACT_Msk            (1UL << SCB_SHCSR_PENDSVACT_Pos)               /*!< SCB 
 647:Drivers/CMSIS/Include/core_cm7.h **** 
 648:Drivers/CMSIS/Include/core_cm7.h **** #define SCB_SHCSR_MONITORACT_Pos            8U                                            /*!< SCB 
 649:Drivers/CMSIS/Include/core_cm7.h **** #define SCB_SHCSR_MONITORACT_Msk           (1UL << SCB_SHCSR_MONITORACT_Pos)              /*!< SCB 
 650:Drivers/CMSIS/Include/core_cm7.h **** 
 651:Drivers/CMSIS/Include/core_cm7.h **** #define SCB_SHCSR_SVCALLACT_Pos             7U                                            /*!< SCB 
 652:Drivers/CMSIS/Include/core_cm7.h **** #define SCB_SHCSR_SVCALLACT_Msk            (1UL << SCB_SHCSR_SVCALLACT_Pos)               /*!< SCB 
 653:Drivers/CMSIS/Include/core_cm7.h **** 
 654:Drivers/CMSIS/Include/core_cm7.h **** #define SCB_SHCSR_USGFAULTACT_Pos           3U                                            /*!< SCB 
 655:Drivers/CMSIS/Include/core_cm7.h **** #define SCB_SHCSR_USGFAULTACT_Msk          (1UL << SCB_SHCSR_USGFAULTACT_Pos)             /*!< SCB 
 656:Drivers/CMSIS/Include/core_cm7.h **** 
 657:Drivers/CMSIS/Include/core_cm7.h **** #define SCB_SHCSR_BUSFAULTACT_Pos           1U                                            /*!< SCB 
 658:Drivers/CMSIS/Include/core_cm7.h **** #define SCB_SHCSR_BUSFAULTACT_Msk          (1UL << SCB_SHCSR_BUSFAULTACT_Pos)             /*!< SCB 
 659:Drivers/CMSIS/Include/core_cm7.h **** 
 660:Drivers/CMSIS/Include/core_cm7.h **** #define SCB_SHCSR_MEMFAULTACT_Pos           0U                                            /*!< SCB 
 661:Drivers/CMSIS/Include/core_cm7.h **** #define SCB_SHCSR_MEMFAULTACT_Msk          (1UL /*<< SCB_SHCSR_MEMFAULTACT_Pos*/)         /*!< SCB 
 662:Drivers/CMSIS/Include/core_cm7.h **** 
 663:Drivers/CMSIS/Include/core_cm7.h **** /* SCB Configurable Fault Status Register Definitions */
 664:Drivers/CMSIS/Include/core_cm7.h **** #define SCB_CFSR_USGFAULTSR_Pos            16U                                            /*!< SCB 
 665:Drivers/CMSIS/Include/core_cm7.h **** #define SCB_CFSR_USGFAULTSR_Msk            (0xFFFFUL << SCB_CFSR_USGFAULTSR_Pos)          /*!< SCB 
 666:Drivers/CMSIS/Include/core_cm7.h **** 
 667:Drivers/CMSIS/Include/core_cm7.h **** #define SCB_CFSR_BUSFAULTSR_Pos             8U                                            /*!< SCB 
 668:Drivers/CMSIS/Include/core_cm7.h **** #define SCB_CFSR_BUSFAULTSR_Msk            (0xFFUL << SCB_CFSR_BUSFAULTSR_Pos)            /*!< SCB 
 669:Drivers/CMSIS/Include/core_cm7.h **** 
 670:Drivers/CMSIS/Include/core_cm7.h **** #define SCB_CFSR_MEMFAULTSR_Pos             0U                                            /*!< SCB 
 671:Drivers/CMSIS/Include/core_cm7.h **** #define SCB_CFSR_MEMFAULTSR_Msk            (0xFFUL /*<< SCB_CFSR_MEMFAULTSR_Pos*/)        /*!< SCB 
 672:Drivers/CMSIS/Include/core_cm7.h **** 
 673:Drivers/CMSIS/Include/core_cm7.h **** /* MemManage Fault Status Register (part of SCB Configurable Fault Status Register) */
 674:Drivers/CMSIS/Include/core_cm7.h **** #define SCB_CFSR_MMARVALID_Pos             (SCB_SHCSR_MEMFAULTACT_Pos + 7U)               /*!< SCB 
 675:Drivers/CMSIS/Include/core_cm7.h **** #define SCB_CFSR_MMARVALID_Msk             (1UL << SCB_CFSR_MMARVALID_Pos)                /*!< SCB 
 676:Drivers/CMSIS/Include/core_cm7.h **** 
 677:Drivers/CMSIS/Include/core_cm7.h **** #define SCB_CFSR_MLSPERR_Pos               (SCB_SHCSR_MEMFAULTACT_Pos + 5U)               /*!< SCB 
 678:Drivers/CMSIS/Include/core_cm7.h **** #define SCB_CFSR_MLSPERR_Msk               (1UL << SCB_CFSR_MLSPERR_Pos)                  /*!< SCB 
 679:Drivers/CMSIS/Include/core_cm7.h **** 
 680:Drivers/CMSIS/Include/core_cm7.h **** #define SCB_CFSR_MSTKERR_Pos               (SCB_SHCSR_MEMFAULTACT_Pos + 4U)               /*!< SCB 
 681:Drivers/CMSIS/Include/core_cm7.h **** #define SCB_CFSR_MSTKERR_Msk               (1UL << SCB_CFSR_MSTKERR_Pos)                  /*!< SCB 
 682:Drivers/CMSIS/Include/core_cm7.h **** 
 683:Drivers/CMSIS/Include/core_cm7.h **** #define SCB_CFSR_MUNSTKERR_Pos             (SCB_SHCSR_MEMFAULTACT_Pos + 3U)               /*!< SCB 
 684:Drivers/CMSIS/Include/core_cm7.h **** #define SCB_CFSR_MUNSTKERR_Msk             (1UL << SCB_CFSR_MUNSTKERR_Pos)                /*!< SCB 
ARM GAS  /var/folders/4f/bvl6__ys6qq7h5n0wwljfc200000gn/T//cchNM4Pb.s 			page 40


 685:Drivers/CMSIS/Include/core_cm7.h **** 
 686:Drivers/CMSIS/Include/core_cm7.h **** #define SCB_CFSR_DACCVIOL_Pos              (SCB_SHCSR_MEMFAULTACT_Pos + 1U)               /*!< SCB 
 687:Drivers/CMSIS/Include/core_cm7.h **** #define SCB_CFSR_DACCVIOL_Msk              (1UL << SCB_CFSR_DACCVIOL_Pos)                 /*!< SCB 
 688:Drivers/CMSIS/Include/core_cm7.h **** 
 689:Drivers/CMSIS/Include/core_cm7.h **** #define SCB_CFSR_IACCVIOL_Pos              (SCB_SHCSR_MEMFAULTACT_Pos + 0U)               /*!< SCB 
 690:Drivers/CMSIS/Include/core_cm7.h **** #define SCB_CFSR_IACCVIOL_Msk              (1UL /*<< SCB_CFSR_IACCVIOL_Pos*/)             /*!< SCB 
 691:Drivers/CMSIS/Include/core_cm7.h **** 
 692:Drivers/CMSIS/Include/core_cm7.h **** /* BusFault Status Register (part of SCB Configurable Fault Status Register) */
 693:Drivers/CMSIS/Include/core_cm7.h **** #define SCB_CFSR_BFARVALID_Pos            (SCB_CFSR_BUSFAULTSR_Pos + 7U)                  /*!< SCB 
 694:Drivers/CMSIS/Include/core_cm7.h **** #define SCB_CFSR_BFARVALID_Msk            (1UL << SCB_CFSR_BFARVALID_Pos)                 /*!< SCB 
 695:Drivers/CMSIS/Include/core_cm7.h **** 
 696:Drivers/CMSIS/Include/core_cm7.h **** #define SCB_CFSR_LSPERR_Pos               (SCB_CFSR_BUSFAULTSR_Pos + 5U)                  /*!< SCB 
 697:Drivers/CMSIS/Include/core_cm7.h **** #define SCB_CFSR_LSPERR_Msk               (1UL << SCB_CFSR_LSPERR_Pos)                    /*!< SCB 
 698:Drivers/CMSIS/Include/core_cm7.h **** 
 699:Drivers/CMSIS/Include/core_cm7.h **** #define SCB_CFSR_STKERR_Pos               (SCB_CFSR_BUSFAULTSR_Pos + 4U)                  /*!< SCB 
 700:Drivers/CMSIS/Include/core_cm7.h **** #define SCB_CFSR_STKERR_Msk               (1UL << SCB_CFSR_STKERR_Pos)                    /*!< SCB 
 701:Drivers/CMSIS/Include/core_cm7.h **** 
 702:Drivers/CMSIS/Include/core_cm7.h **** #define SCB_CFSR_UNSTKERR_Pos             (SCB_CFSR_BUSFAULTSR_Pos + 3U)                  /*!< SCB 
 703:Drivers/CMSIS/Include/core_cm7.h **** #define SCB_CFSR_UNSTKERR_Msk             (1UL << SCB_CFSR_UNSTKERR_Pos)                  /*!< SCB 
 704:Drivers/CMSIS/Include/core_cm7.h **** 
 705:Drivers/CMSIS/Include/core_cm7.h **** #define SCB_CFSR_IMPRECISERR_Pos          (SCB_CFSR_BUSFAULTSR_Pos + 2U)                  /*!< SCB 
 706:Drivers/CMSIS/Include/core_cm7.h **** #define SCB_CFSR_IMPRECISERR_Msk          (1UL << SCB_CFSR_IMPRECISERR_Pos)               /*!< SCB 
 707:Drivers/CMSIS/Include/core_cm7.h **** 
 708:Drivers/CMSIS/Include/core_cm7.h **** #define SCB_CFSR_PRECISERR_Pos            (SCB_CFSR_BUSFAULTSR_Pos + 1U)                  /*!< SCB 
 709:Drivers/CMSIS/Include/core_cm7.h **** #define SCB_CFSR_PRECISERR_Msk            (1UL << SCB_CFSR_PRECISERR_Pos)                 /*!< SCB 
 710:Drivers/CMSIS/Include/core_cm7.h **** 
 711:Drivers/CMSIS/Include/core_cm7.h **** #define SCB_CFSR_IBUSERR_Pos              (SCB_CFSR_BUSFAULTSR_Pos + 0U)                  /*!< SCB 
 712:Drivers/CMSIS/Include/core_cm7.h **** #define SCB_CFSR_IBUSERR_Msk              (1UL << SCB_CFSR_IBUSERR_Pos)                   /*!< SCB 
 713:Drivers/CMSIS/Include/core_cm7.h **** 
 714:Drivers/CMSIS/Include/core_cm7.h **** /* UsageFault Status Register (part of SCB Configurable Fault Status Register) */
 715:Drivers/CMSIS/Include/core_cm7.h **** #define SCB_CFSR_DIVBYZERO_Pos            (SCB_CFSR_USGFAULTSR_Pos + 9U)                  /*!< SCB 
 716:Drivers/CMSIS/Include/core_cm7.h **** #define SCB_CFSR_DIVBYZERO_Msk            (1UL << SCB_CFSR_DIVBYZERO_Pos)                 /*!< SCB 
 717:Drivers/CMSIS/Include/core_cm7.h **** 
 718:Drivers/CMSIS/Include/core_cm7.h **** #define SCB_CFSR_UNALIGNED_Pos            (SCB_CFSR_USGFAULTSR_Pos + 8U)                  /*!< SCB 
 719:Drivers/CMSIS/Include/core_cm7.h **** #define SCB_CFSR_UNALIGNED_Msk            (1UL << SCB_CFSR_UNALIGNED_Pos)                 /*!< SCB 
 720:Drivers/CMSIS/Include/core_cm7.h **** 
 721:Drivers/CMSIS/Include/core_cm7.h **** #define SCB_CFSR_NOCP_Pos                 (SCB_CFSR_USGFAULTSR_Pos + 3U)                  /*!< SCB 
 722:Drivers/CMSIS/Include/core_cm7.h **** #define SCB_CFSR_NOCP_Msk                 (1UL << SCB_CFSR_NOCP_Pos)                      /*!< SCB 
 723:Drivers/CMSIS/Include/core_cm7.h **** 
 724:Drivers/CMSIS/Include/core_cm7.h **** #define SCB_CFSR_INVPC_Pos                (SCB_CFSR_USGFAULTSR_Pos + 2U)                  /*!< SCB 
 725:Drivers/CMSIS/Include/core_cm7.h **** #define SCB_CFSR_INVPC_Msk                (1UL << SCB_CFSR_INVPC_Pos)                     /*!< SCB 
 726:Drivers/CMSIS/Include/core_cm7.h **** 
 727:Drivers/CMSIS/Include/core_cm7.h **** #define SCB_CFSR_INVSTATE_Pos             (SCB_CFSR_USGFAULTSR_Pos + 1U)                  /*!< SCB 
 728:Drivers/CMSIS/Include/core_cm7.h **** #define SCB_CFSR_INVSTATE_Msk             (1UL << SCB_CFSR_INVSTATE_Pos)                  /*!< SCB 
 729:Drivers/CMSIS/Include/core_cm7.h **** 
 730:Drivers/CMSIS/Include/core_cm7.h **** #define SCB_CFSR_UNDEFINSTR_Pos           (SCB_CFSR_USGFAULTSR_Pos + 0U)                  /*!< SCB 
 731:Drivers/CMSIS/Include/core_cm7.h **** #define SCB_CFSR_UNDEFINSTR_Msk           (1UL << SCB_CFSR_UNDEFINSTR_Pos)                /*!< SCB 
 732:Drivers/CMSIS/Include/core_cm7.h **** 
 733:Drivers/CMSIS/Include/core_cm7.h **** /* SCB Hard Fault Status Register Definitions */
 734:Drivers/CMSIS/Include/core_cm7.h **** #define SCB_HFSR_DEBUGEVT_Pos              31U                                            /*!< SCB 
 735:Drivers/CMSIS/Include/core_cm7.h **** #define SCB_HFSR_DEBUGEVT_Msk              (1UL << SCB_HFSR_DEBUGEVT_Pos)                 /*!< SCB 
 736:Drivers/CMSIS/Include/core_cm7.h **** 
 737:Drivers/CMSIS/Include/core_cm7.h **** #define SCB_HFSR_FORCED_Pos                30U                                            /*!< SCB 
 738:Drivers/CMSIS/Include/core_cm7.h **** #define SCB_HFSR_FORCED_Msk                (1UL << SCB_HFSR_FORCED_Pos)                   /*!< SCB 
 739:Drivers/CMSIS/Include/core_cm7.h **** 
 740:Drivers/CMSIS/Include/core_cm7.h **** #define SCB_HFSR_VECTTBL_Pos                1U                                            /*!< SCB 
 741:Drivers/CMSIS/Include/core_cm7.h **** #define SCB_HFSR_VECTTBL_Msk               (1UL << SCB_HFSR_VECTTBL_Pos)                  /*!< SCB 
ARM GAS  /var/folders/4f/bvl6__ys6qq7h5n0wwljfc200000gn/T//cchNM4Pb.s 			page 41


 742:Drivers/CMSIS/Include/core_cm7.h **** 
 743:Drivers/CMSIS/Include/core_cm7.h **** /* SCB Debug Fault Status Register Definitions */
 744:Drivers/CMSIS/Include/core_cm7.h **** #define SCB_DFSR_EXTERNAL_Pos               4U                                            /*!< SCB 
 745:Drivers/CMSIS/Include/core_cm7.h **** #define SCB_DFSR_EXTERNAL_Msk              (1UL << SCB_DFSR_EXTERNAL_Pos)                 /*!< SCB 
 746:Drivers/CMSIS/Include/core_cm7.h **** 
 747:Drivers/CMSIS/Include/core_cm7.h **** #define SCB_DFSR_VCATCH_Pos                 3U                                            /*!< SCB 
 748:Drivers/CMSIS/Include/core_cm7.h **** #define SCB_DFSR_VCATCH_Msk                (1UL << SCB_DFSR_VCATCH_Pos)                   /*!< SCB 
 749:Drivers/CMSIS/Include/core_cm7.h **** 
 750:Drivers/CMSIS/Include/core_cm7.h **** #define SCB_DFSR_DWTTRAP_Pos                2U                                            /*!< SCB 
 751:Drivers/CMSIS/Include/core_cm7.h **** #define SCB_DFSR_DWTTRAP_Msk               (1UL << SCB_DFSR_DWTTRAP_Pos)                  /*!< SCB 
 752:Drivers/CMSIS/Include/core_cm7.h **** 
 753:Drivers/CMSIS/Include/core_cm7.h **** #define SCB_DFSR_BKPT_Pos                   1U                                            /*!< SCB 
 754:Drivers/CMSIS/Include/core_cm7.h **** #define SCB_DFSR_BKPT_Msk                  (1UL << SCB_DFSR_BKPT_Pos)                     /*!< SCB 
 755:Drivers/CMSIS/Include/core_cm7.h **** 
 756:Drivers/CMSIS/Include/core_cm7.h **** #define SCB_DFSR_HALTED_Pos                 0U                                            /*!< SCB 
 757:Drivers/CMSIS/Include/core_cm7.h **** #define SCB_DFSR_HALTED_Msk                (1UL /*<< SCB_DFSR_HALTED_Pos*/)               /*!< SCB 
 758:Drivers/CMSIS/Include/core_cm7.h **** 
 759:Drivers/CMSIS/Include/core_cm7.h **** /* SCB Cache Level ID Register Definitions */
 760:Drivers/CMSIS/Include/core_cm7.h **** #define SCB_CLIDR_LOUU_Pos                 27U                                            /*!< SCB 
 761:Drivers/CMSIS/Include/core_cm7.h **** #define SCB_CLIDR_LOUU_Msk                 (7UL << SCB_CLIDR_LOUU_Pos)                    /*!< SCB 
 762:Drivers/CMSIS/Include/core_cm7.h **** 
 763:Drivers/CMSIS/Include/core_cm7.h **** #define SCB_CLIDR_LOC_Pos                  24U                                            /*!< SCB 
 764:Drivers/CMSIS/Include/core_cm7.h **** #define SCB_CLIDR_LOC_Msk                  (7UL << SCB_CLIDR_LOC_Pos)                     /*!< SCB 
 765:Drivers/CMSIS/Include/core_cm7.h **** 
 766:Drivers/CMSIS/Include/core_cm7.h **** /* SCB Cache Type Register Definitions */
 767:Drivers/CMSIS/Include/core_cm7.h **** #define SCB_CTR_FORMAT_Pos                 29U                                            /*!< SCB 
 768:Drivers/CMSIS/Include/core_cm7.h **** #define SCB_CTR_FORMAT_Msk                 (7UL << SCB_CTR_FORMAT_Pos)                    /*!< SCB 
 769:Drivers/CMSIS/Include/core_cm7.h **** 
 770:Drivers/CMSIS/Include/core_cm7.h **** #define SCB_CTR_CWG_Pos                    24U                                            /*!< SCB 
 771:Drivers/CMSIS/Include/core_cm7.h **** #define SCB_CTR_CWG_Msk                    (0xFUL << SCB_CTR_CWG_Pos)                     /*!< SCB 
 772:Drivers/CMSIS/Include/core_cm7.h **** 
 773:Drivers/CMSIS/Include/core_cm7.h **** #define SCB_CTR_ERG_Pos                    20U                                            /*!< SCB 
 774:Drivers/CMSIS/Include/core_cm7.h **** #define SCB_CTR_ERG_Msk                    (0xFUL << SCB_CTR_ERG_Pos)                     /*!< SCB 
 775:Drivers/CMSIS/Include/core_cm7.h **** 
 776:Drivers/CMSIS/Include/core_cm7.h **** #define SCB_CTR_DMINLINE_Pos               16U                                            /*!< SCB 
 777:Drivers/CMSIS/Include/core_cm7.h **** #define SCB_CTR_DMINLINE_Msk               (0xFUL << SCB_CTR_DMINLINE_Pos)                /*!< SCB 
 778:Drivers/CMSIS/Include/core_cm7.h **** 
 779:Drivers/CMSIS/Include/core_cm7.h **** #define SCB_CTR_IMINLINE_Pos                0U                                            /*!< SCB 
 780:Drivers/CMSIS/Include/core_cm7.h **** #define SCB_CTR_IMINLINE_Msk               (0xFUL /*<< SCB_CTR_IMINLINE_Pos*/)            /*!< SCB 
 781:Drivers/CMSIS/Include/core_cm7.h **** 
 782:Drivers/CMSIS/Include/core_cm7.h **** /* SCB Cache Size ID Register Definitions */
 783:Drivers/CMSIS/Include/core_cm7.h **** #define SCB_CCSIDR_WT_Pos                  31U                                            /*!< SCB 
 784:Drivers/CMSIS/Include/core_cm7.h **** #define SCB_CCSIDR_WT_Msk                  (1UL << SCB_CCSIDR_WT_Pos)                     /*!< SCB 
 785:Drivers/CMSIS/Include/core_cm7.h **** 
 786:Drivers/CMSIS/Include/core_cm7.h **** #define SCB_CCSIDR_WB_Pos                  30U                                            /*!< SCB 
 787:Drivers/CMSIS/Include/core_cm7.h **** #define SCB_CCSIDR_WB_Msk                  (1UL << SCB_CCSIDR_WB_Pos)                     /*!< SCB 
 788:Drivers/CMSIS/Include/core_cm7.h **** 
 789:Drivers/CMSIS/Include/core_cm7.h **** #define SCB_CCSIDR_RA_Pos                  29U                                            /*!< SCB 
 790:Drivers/CMSIS/Include/core_cm7.h **** #define SCB_CCSIDR_RA_Msk                  (1UL << SCB_CCSIDR_RA_Pos)                     /*!< SCB 
 791:Drivers/CMSIS/Include/core_cm7.h **** 
 792:Drivers/CMSIS/Include/core_cm7.h **** #define SCB_CCSIDR_WA_Pos                  28U                                            /*!< SCB 
 793:Drivers/CMSIS/Include/core_cm7.h **** #define SCB_CCSIDR_WA_Msk                  (1UL << SCB_CCSIDR_WA_Pos)                     /*!< SCB 
 794:Drivers/CMSIS/Include/core_cm7.h **** 
 795:Drivers/CMSIS/Include/core_cm7.h **** #define SCB_CCSIDR_NUMSETS_Pos             13U                                            /*!< SCB 
 796:Drivers/CMSIS/Include/core_cm7.h **** #define SCB_CCSIDR_NUMSETS_Msk             (0x7FFFUL << SCB_CCSIDR_NUMSETS_Pos)           /*!< SCB 
 797:Drivers/CMSIS/Include/core_cm7.h **** 
 798:Drivers/CMSIS/Include/core_cm7.h **** #define SCB_CCSIDR_ASSOCIATIVITY_Pos        3U                                            /*!< SCB 
ARM GAS  /var/folders/4f/bvl6__ys6qq7h5n0wwljfc200000gn/T//cchNM4Pb.s 			page 42


 799:Drivers/CMSIS/Include/core_cm7.h **** #define SCB_CCSIDR_ASSOCIATIVITY_Msk       (0x3FFUL << SCB_CCSIDR_ASSOCIATIVITY_Pos)      /*!< SCB 
 800:Drivers/CMSIS/Include/core_cm7.h **** 
 801:Drivers/CMSIS/Include/core_cm7.h **** #define SCB_CCSIDR_LINESIZE_Pos             0U                                            /*!< SCB 
 802:Drivers/CMSIS/Include/core_cm7.h **** #define SCB_CCSIDR_LINESIZE_Msk            (7UL /*<< SCB_CCSIDR_LINESIZE_Pos*/)           /*!< SCB 
 803:Drivers/CMSIS/Include/core_cm7.h **** 
 804:Drivers/CMSIS/Include/core_cm7.h **** /* SCB Cache Size Selection Register Definitions */
 805:Drivers/CMSIS/Include/core_cm7.h **** #define SCB_CSSELR_LEVEL_Pos                1U                                            /*!< SCB 
 806:Drivers/CMSIS/Include/core_cm7.h **** #define SCB_CSSELR_LEVEL_Msk               (7UL << SCB_CSSELR_LEVEL_Pos)                  /*!< SCB 
 807:Drivers/CMSIS/Include/core_cm7.h **** 
 808:Drivers/CMSIS/Include/core_cm7.h **** #define SCB_CSSELR_IND_Pos                  0U                                            /*!< SCB 
 809:Drivers/CMSIS/Include/core_cm7.h **** #define SCB_CSSELR_IND_Msk                 (1UL /*<< SCB_CSSELR_IND_Pos*/)                /*!< SCB 
 810:Drivers/CMSIS/Include/core_cm7.h **** 
 811:Drivers/CMSIS/Include/core_cm7.h **** /* SCB Software Triggered Interrupt Register Definitions */
 812:Drivers/CMSIS/Include/core_cm7.h **** #define SCB_STIR_INTID_Pos                  0U                                            /*!< SCB 
 813:Drivers/CMSIS/Include/core_cm7.h **** #define SCB_STIR_INTID_Msk                 (0x1FFUL /*<< SCB_STIR_INTID_Pos*/)            /*!< SCB 
 814:Drivers/CMSIS/Include/core_cm7.h **** 
 815:Drivers/CMSIS/Include/core_cm7.h **** /* SCB D-Cache Invalidate by Set-way Register Definitions */
 816:Drivers/CMSIS/Include/core_cm7.h **** #define SCB_DCISW_WAY_Pos                  30U                                            /*!< SCB 
 817:Drivers/CMSIS/Include/core_cm7.h **** #define SCB_DCISW_WAY_Msk                  (3UL << SCB_DCISW_WAY_Pos)                     /*!< SCB 
 818:Drivers/CMSIS/Include/core_cm7.h **** 
 819:Drivers/CMSIS/Include/core_cm7.h **** #define SCB_DCISW_SET_Pos                   5U                                            /*!< SCB 
 820:Drivers/CMSIS/Include/core_cm7.h **** #define SCB_DCISW_SET_Msk                  (0x1FFUL << SCB_DCISW_SET_Pos)                 /*!< SCB 
 821:Drivers/CMSIS/Include/core_cm7.h **** 
 822:Drivers/CMSIS/Include/core_cm7.h **** /* SCB D-Cache Clean by Set-way Register Definitions */
 823:Drivers/CMSIS/Include/core_cm7.h **** #define SCB_DCCSW_WAY_Pos                  30U                                            /*!< SCB 
 824:Drivers/CMSIS/Include/core_cm7.h **** #define SCB_DCCSW_WAY_Msk                  (3UL << SCB_DCCSW_WAY_Pos)                     /*!< SCB 
 825:Drivers/CMSIS/Include/core_cm7.h **** 
 826:Drivers/CMSIS/Include/core_cm7.h **** #define SCB_DCCSW_SET_Pos                   5U                                            /*!< SCB 
 827:Drivers/CMSIS/Include/core_cm7.h **** #define SCB_DCCSW_SET_Msk                  (0x1FFUL << SCB_DCCSW_SET_Pos)                 /*!< SCB 
 828:Drivers/CMSIS/Include/core_cm7.h **** 
 829:Drivers/CMSIS/Include/core_cm7.h **** /* SCB D-Cache Clean and Invalidate by Set-way Register Definitions */
 830:Drivers/CMSIS/Include/core_cm7.h **** #define SCB_DCCISW_WAY_Pos                 30U                                            /*!< SCB 
 831:Drivers/CMSIS/Include/core_cm7.h **** #define SCB_DCCISW_WAY_Msk                 (3UL << SCB_DCCISW_WAY_Pos)                    /*!< SCB 
 832:Drivers/CMSIS/Include/core_cm7.h **** 
 833:Drivers/CMSIS/Include/core_cm7.h **** #define SCB_DCCISW_SET_Pos                  5U                                            /*!< SCB 
 834:Drivers/CMSIS/Include/core_cm7.h **** #define SCB_DCCISW_SET_Msk                 (0x1FFUL << SCB_DCCISW_SET_Pos)                /*!< SCB 
 835:Drivers/CMSIS/Include/core_cm7.h **** 
 836:Drivers/CMSIS/Include/core_cm7.h **** /* Instruction Tightly-Coupled Memory Control Register Definitions */
 837:Drivers/CMSIS/Include/core_cm7.h **** #define SCB_ITCMCR_SZ_Pos                   3U                                            /*!< SCB 
 838:Drivers/CMSIS/Include/core_cm7.h **** #define SCB_ITCMCR_SZ_Msk                  (0xFUL << SCB_ITCMCR_SZ_Pos)                   /*!< SCB 
 839:Drivers/CMSIS/Include/core_cm7.h **** 
 840:Drivers/CMSIS/Include/core_cm7.h **** #define SCB_ITCMCR_RETEN_Pos                2U                                            /*!< SCB 
 841:Drivers/CMSIS/Include/core_cm7.h **** #define SCB_ITCMCR_RETEN_Msk               (1UL << SCB_ITCMCR_RETEN_Pos)                  /*!< SCB 
 842:Drivers/CMSIS/Include/core_cm7.h **** 
 843:Drivers/CMSIS/Include/core_cm7.h **** #define SCB_ITCMCR_RMW_Pos                  1U                                            /*!< SCB 
 844:Drivers/CMSIS/Include/core_cm7.h **** #define SCB_ITCMCR_RMW_Msk                 (1UL << SCB_ITCMCR_RMW_Pos)                    /*!< SCB 
 845:Drivers/CMSIS/Include/core_cm7.h **** 
 846:Drivers/CMSIS/Include/core_cm7.h **** #define SCB_ITCMCR_EN_Pos                   0U                                            /*!< SCB 
 847:Drivers/CMSIS/Include/core_cm7.h **** #define SCB_ITCMCR_EN_Msk                  (1UL /*<< SCB_ITCMCR_EN_Pos*/)                 /*!< SCB 
 848:Drivers/CMSIS/Include/core_cm7.h **** 
 849:Drivers/CMSIS/Include/core_cm7.h **** /* Data Tightly-Coupled Memory Control Register Definitions */
 850:Drivers/CMSIS/Include/core_cm7.h **** #define SCB_DTCMCR_SZ_Pos                   3U                                            /*!< SCB 
 851:Drivers/CMSIS/Include/core_cm7.h **** #define SCB_DTCMCR_SZ_Msk                  (0xFUL << SCB_DTCMCR_SZ_Pos)                   /*!< SCB 
 852:Drivers/CMSIS/Include/core_cm7.h **** 
 853:Drivers/CMSIS/Include/core_cm7.h **** #define SCB_DTCMCR_RETEN_Pos                2U                                            /*!< SCB 
 854:Drivers/CMSIS/Include/core_cm7.h **** #define SCB_DTCMCR_RETEN_Msk               (1UL << SCB_DTCMCR_RETEN_Pos)                   /*!< SCB
 855:Drivers/CMSIS/Include/core_cm7.h **** 
ARM GAS  /var/folders/4f/bvl6__ys6qq7h5n0wwljfc200000gn/T//cchNM4Pb.s 			page 43


 856:Drivers/CMSIS/Include/core_cm7.h **** #define SCB_DTCMCR_RMW_Pos                  1U                                            /*!< SCB 
 857:Drivers/CMSIS/Include/core_cm7.h **** #define SCB_DTCMCR_RMW_Msk                 (1UL << SCB_DTCMCR_RMW_Pos)                    /*!< SCB 
 858:Drivers/CMSIS/Include/core_cm7.h **** 
 859:Drivers/CMSIS/Include/core_cm7.h **** #define SCB_DTCMCR_EN_Pos                   0U                                            /*!< SCB 
 860:Drivers/CMSIS/Include/core_cm7.h **** #define SCB_DTCMCR_EN_Msk                  (1UL /*<< SCB_DTCMCR_EN_Pos*/)                 /*!< SCB 
 861:Drivers/CMSIS/Include/core_cm7.h **** 
 862:Drivers/CMSIS/Include/core_cm7.h **** /* AHBP Control Register Definitions */
 863:Drivers/CMSIS/Include/core_cm7.h **** #define SCB_AHBPCR_SZ_Pos                   1U                                            /*!< SCB 
 864:Drivers/CMSIS/Include/core_cm7.h **** #define SCB_AHBPCR_SZ_Msk                  (7UL << SCB_AHBPCR_SZ_Pos)                     /*!< SCB 
 865:Drivers/CMSIS/Include/core_cm7.h **** 
 866:Drivers/CMSIS/Include/core_cm7.h **** #define SCB_AHBPCR_EN_Pos                   0U                                            /*!< SCB 
 867:Drivers/CMSIS/Include/core_cm7.h **** #define SCB_AHBPCR_EN_Msk                  (1UL /*<< SCB_AHBPCR_EN_Pos*/)                 /*!< SCB 
 868:Drivers/CMSIS/Include/core_cm7.h **** 
 869:Drivers/CMSIS/Include/core_cm7.h **** /* L1 Cache Control Register Definitions */
 870:Drivers/CMSIS/Include/core_cm7.h **** #define SCB_CACR_FORCEWT_Pos                2U                                            /*!< SCB 
 871:Drivers/CMSIS/Include/core_cm7.h **** #define SCB_CACR_FORCEWT_Msk               (1UL << SCB_CACR_FORCEWT_Pos)                  /*!< SCB 
 872:Drivers/CMSIS/Include/core_cm7.h **** 
 873:Drivers/CMSIS/Include/core_cm7.h **** #define SCB_CACR_ECCEN_Pos                  1U                                            /*!< SCB 
 874:Drivers/CMSIS/Include/core_cm7.h **** #define SCB_CACR_ECCEN_Msk                 (1UL << SCB_CACR_ECCEN_Pos)                    /*!< SCB 
 875:Drivers/CMSIS/Include/core_cm7.h **** 
 876:Drivers/CMSIS/Include/core_cm7.h **** #define SCB_CACR_SIWT_Pos                   0U                                            /*!< SCB 
 877:Drivers/CMSIS/Include/core_cm7.h **** #define SCB_CACR_SIWT_Msk                  (1UL /*<< SCB_CACR_SIWT_Pos*/)                 /*!< SCB 
 878:Drivers/CMSIS/Include/core_cm7.h **** 
 879:Drivers/CMSIS/Include/core_cm7.h **** /* AHBS Control Register Definitions */
 880:Drivers/CMSIS/Include/core_cm7.h **** #define SCB_AHBSCR_INITCOUNT_Pos           11U                                            /*!< SCB 
 881:Drivers/CMSIS/Include/core_cm7.h **** #define SCB_AHBSCR_INITCOUNT_Msk           (0x1FUL << SCB_AHBPCR_INITCOUNT_Pos)           /*!< SCB 
 882:Drivers/CMSIS/Include/core_cm7.h **** 
 883:Drivers/CMSIS/Include/core_cm7.h **** #define SCB_AHBSCR_TPRI_Pos                 2U                                            /*!< SCB 
 884:Drivers/CMSIS/Include/core_cm7.h **** #define SCB_AHBSCR_TPRI_Msk                (0x1FFUL << SCB_AHBPCR_TPRI_Pos)               /*!< SCB 
 885:Drivers/CMSIS/Include/core_cm7.h **** 
 886:Drivers/CMSIS/Include/core_cm7.h **** #define SCB_AHBSCR_CTL_Pos                  0U                                            /*!< SCB 
 887:Drivers/CMSIS/Include/core_cm7.h **** #define SCB_AHBSCR_CTL_Msk                 (3UL /*<< SCB_AHBPCR_CTL_Pos*/)                /*!< SCB 
 888:Drivers/CMSIS/Include/core_cm7.h **** 
 889:Drivers/CMSIS/Include/core_cm7.h **** /* Auxiliary Bus Fault Status Register Definitions */
 890:Drivers/CMSIS/Include/core_cm7.h **** #define SCB_ABFSR_AXIMTYPE_Pos              8U                                            /*!< SCB 
 891:Drivers/CMSIS/Include/core_cm7.h **** #define SCB_ABFSR_AXIMTYPE_Msk             (3UL << SCB_ABFSR_AXIMTYPE_Pos)                /*!< SCB 
 892:Drivers/CMSIS/Include/core_cm7.h **** 
 893:Drivers/CMSIS/Include/core_cm7.h **** #define SCB_ABFSR_EPPB_Pos                  4U                                            /*!< SCB 
 894:Drivers/CMSIS/Include/core_cm7.h **** #define SCB_ABFSR_EPPB_Msk                 (1UL << SCB_ABFSR_EPPB_Pos)                    /*!< SCB 
 895:Drivers/CMSIS/Include/core_cm7.h **** 
 896:Drivers/CMSIS/Include/core_cm7.h **** #define SCB_ABFSR_AXIM_Pos                  3U                                            /*!< SCB 
 897:Drivers/CMSIS/Include/core_cm7.h **** #define SCB_ABFSR_AXIM_Msk                 (1UL << SCB_ABFSR_AXIM_Pos)                    /*!< SCB 
 898:Drivers/CMSIS/Include/core_cm7.h **** 
 899:Drivers/CMSIS/Include/core_cm7.h **** #define SCB_ABFSR_AHBP_Pos                  2U                                            /*!< SCB 
 900:Drivers/CMSIS/Include/core_cm7.h **** #define SCB_ABFSR_AHBP_Msk                 (1UL << SCB_ABFSR_AHBP_Pos)                    /*!< SCB 
 901:Drivers/CMSIS/Include/core_cm7.h **** 
 902:Drivers/CMSIS/Include/core_cm7.h **** #define SCB_ABFSR_DTCM_Pos                  1U                                            /*!< SCB 
 903:Drivers/CMSIS/Include/core_cm7.h **** #define SCB_ABFSR_DTCM_Msk                 (1UL << SCB_ABFSR_DTCM_Pos)                    /*!< SCB 
 904:Drivers/CMSIS/Include/core_cm7.h **** 
 905:Drivers/CMSIS/Include/core_cm7.h **** #define SCB_ABFSR_ITCM_Pos                  0U                                            /*!< SCB 
 906:Drivers/CMSIS/Include/core_cm7.h **** #define SCB_ABFSR_ITCM_Msk                 (1UL /*<< SCB_ABFSR_ITCM_Pos*/)                /*!< SCB 
 907:Drivers/CMSIS/Include/core_cm7.h **** 
 908:Drivers/CMSIS/Include/core_cm7.h **** /*@} end of group CMSIS_SCB */
 909:Drivers/CMSIS/Include/core_cm7.h **** 
 910:Drivers/CMSIS/Include/core_cm7.h **** 
 911:Drivers/CMSIS/Include/core_cm7.h **** /**
 912:Drivers/CMSIS/Include/core_cm7.h ****   \ingroup  CMSIS_core_register
ARM GAS  /var/folders/4f/bvl6__ys6qq7h5n0wwljfc200000gn/T//cchNM4Pb.s 			page 44


 913:Drivers/CMSIS/Include/core_cm7.h ****   \defgroup CMSIS_SCnSCB System Controls not in SCB (SCnSCB)
 914:Drivers/CMSIS/Include/core_cm7.h ****   \brief    Type definitions for the System Control and ID Register not in the SCB
 915:Drivers/CMSIS/Include/core_cm7.h ****   @{
 916:Drivers/CMSIS/Include/core_cm7.h ****  */
 917:Drivers/CMSIS/Include/core_cm7.h **** 
 918:Drivers/CMSIS/Include/core_cm7.h **** /**
 919:Drivers/CMSIS/Include/core_cm7.h ****   \brief  Structure type to access the System Control and ID Register not in the SCB.
 920:Drivers/CMSIS/Include/core_cm7.h ****  */
 921:Drivers/CMSIS/Include/core_cm7.h **** typedef struct
 922:Drivers/CMSIS/Include/core_cm7.h **** {
 923:Drivers/CMSIS/Include/core_cm7.h ****         uint32_t RESERVED0[1U];
 924:Drivers/CMSIS/Include/core_cm7.h ****   __IM  uint32_t ICTR;                   /*!< Offset: 0x004 (R/ )  Interrupt Controller Type Regist
 925:Drivers/CMSIS/Include/core_cm7.h ****   __IOM uint32_t ACTLR;                  /*!< Offset: 0x008 (R/W)  Auxiliary Control Register */
 926:Drivers/CMSIS/Include/core_cm7.h **** } SCnSCB_Type;
 927:Drivers/CMSIS/Include/core_cm7.h **** 
 928:Drivers/CMSIS/Include/core_cm7.h **** /* Interrupt Controller Type Register Definitions */
 929:Drivers/CMSIS/Include/core_cm7.h **** #define SCnSCB_ICTR_INTLINESNUM_Pos         0U                                         /*!< ICTR: I
 930:Drivers/CMSIS/Include/core_cm7.h **** #define SCnSCB_ICTR_INTLINESNUM_Msk        (0xFUL /*<< SCnSCB_ICTR_INTLINESNUM_Pos*/)  /*!< ICTR: I
 931:Drivers/CMSIS/Include/core_cm7.h **** 
 932:Drivers/CMSIS/Include/core_cm7.h **** /* Auxiliary Control Register Definitions */
 933:Drivers/CMSIS/Include/core_cm7.h **** #define SCnSCB_ACTLR_DISITMATBFLUSH_Pos    12U                                         /*!< ACTLR: 
 934:Drivers/CMSIS/Include/core_cm7.h **** #define SCnSCB_ACTLR_DISITMATBFLUSH_Msk    (1UL << SCnSCB_ACTLR_DISITMATBFLUSH_Pos)    /*!< ACTLR: 
 935:Drivers/CMSIS/Include/core_cm7.h **** 
 936:Drivers/CMSIS/Include/core_cm7.h **** #define SCnSCB_ACTLR_DISRAMODE_Pos         11U                                         /*!< ACTLR: 
 937:Drivers/CMSIS/Include/core_cm7.h **** #define SCnSCB_ACTLR_DISRAMODE_Msk         (1UL << SCnSCB_ACTLR_DISRAMODE_Pos)         /*!< ACTLR: 
 938:Drivers/CMSIS/Include/core_cm7.h **** 
 939:Drivers/CMSIS/Include/core_cm7.h **** #define SCnSCB_ACTLR_FPEXCODIS_Pos         10U                                         /*!< ACTLR: 
 940:Drivers/CMSIS/Include/core_cm7.h **** #define SCnSCB_ACTLR_FPEXCODIS_Msk         (1UL << SCnSCB_ACTLR_FPEXCODIS_Pos)         /*!< ACTLR: 
 941:Drivers/CMSIS/Include/core_cm7.h **** 
 942:Drivers/CMSIS/Include/core_cm7.h **** #define SCnSCB_ACTLR_DISFOLD_Pos            2U                                         /*!< ACTLR: 
 943:Drivers/CMSIS/Include/core_cm7.h **** #define SCnSCB_ACTLR_DISFOLD_Msk           (1UL << SCnSCB_ACTLR_DISFOLD_Pos)           /*!< ACTLR: 
 944:Drivers/CMSIS/Include/core_cm7.h **** 
 945:Drivers/CMSIS/Include/core_cm7.h **** #define SCnSCB_ACTLR_DISMCYCINT_Pos         0U                                         /*!< ACTLR: 
 946:Drivers/CMSIS/Include/core_cm7.h **** #define SCnSCB_ACTLR_DISMCYCINT_Msk        (1UL /*<< SCnSCB_ACTLR_DISMCYCINT_Pos*/)    /*!< ACTLR: 
 947:Drivers/CMSIS/Include/core_cm7.h **** 
 948:Drivers/CMSIS/Include/core_cm7.h **** /*@} end of group CMSIS_SCnotSCB */
 949:Drivers/CMSIS/Include/core_cm7.h **** 
 950:Drivers/CMSIS/Include/core_cm7.h **** 
 951:Drivers/CMSIS/Include/core_cm7.h **** /**
 952:Drivers/CMSIS/Include/core_cm7.h ****   \ingroup  CMSIS_core_register
 953:Drivers/CMSIS/Include/core_cm7.h ****   \defgroup CMSIS_SysTick     System Tick Timer (SysTick)
 954:Drivers/CMSIS/Include/core_cm7.h ****   \brief    Type definitions for the System Timer Registers.
 955:Drivers/CMSIS/Include/core_cm7.h ****   @{
 956:Drivers/CMSIS/Include/core_cm7.h ****  */
 957:Drivers/CMSIS/Include/core_cm7.h **** 
 958:Drivers/CMSIS/Include/core_cm7.h **** /**
 959:Drivers/CMSIS/Include/core_cm7.h ****   \brief  Structure type to access the System Timer (SysTick).
 960:Drivers/CMSIS/Include/core_cm7.h ****  */
 961:Drivers/CMSIS/Include/core_cm7.h **** typedef struct
 962:Drivers/CMSIS/Include/core_cm7.h **** {
 963:Drivers/CMSIS/Include/core_cm7.h ****   __IOM uint32_t CTRL;                   /*!< Offset: 0x000 (R/W)  SysTick Control and Status Regis
 964:Drivers/CMSIS/Include/core_cm7.h ****   __IOM uint32_t LOAD;                   /*!< Offset: 0x004 (R/W)  SysTick Reload Value Register */
 965:Drivers/CMSIS/Include/core_cm7.h ****   __IOM uint32_t VAL;                    /*!< Offset: 0x008 (R/W)  SysTick Current Value Register *
 966:Drivers/CMSIS/Include/core_cm7.h ****   __IM  uint32_t CALIB;                  /*!< Offset: 0x00C (R/ )  SysTick Calibration Register */
 967:Drivers/CMSIS/Include/core_cm7.h **** } SysTick_Type;
 968:Drivers/CMSIS/Include/core_cm7.h **** 
 969:Drivers/CMSIS/Include/core_cm7.h **** /* SysTick Control / Status Register Definitions */
ARM GAS  /var/folders/4f/bvl6__ys6qq7h5n0wwljfc200000gn/T//cchNM4Pb.s 			page 45


 970:Drivers/CMSIS/Include/core_cm7.h **** #define SysTick_CTRL_COUNTFLAG_Pos         16U                                            /*!< SysT
 971:Drivers/CMSIS/Include/core_cm7.h **** #define SysTick_CTRL_COUNTFLAG_Msk         (1UL << SysTick_CTRL_COUNTFLAG_Pos)            /*!< SysT
 972:Drivers/CMSIS/Include/core_cm7.h **** 
 973:Drivers/CMSIS/Include/core_cm7.h **** #define SysTick_CTRL_CLKSOURCE_Pos          2U                                            /*!< SysT
 974:Drivers/CMSIS/Include/core_cm7.h **** #define SysTick_CTRL_CLKSOURCE_Msk         (1UL << SysTick_CTRL_CLKSOURCE_Pos)            /*!< SysT
 975:Drivers/CMSIS/Include/core_cm7.h **** 
 976:Drivers/CMSIS/Include/core_cm7.h **** #define SysTick_CTRL_TICKINT_Pos            1U                                            /*!< SysT
 977:Drivers/CMSIS/Include/core_cm7.h **** #define SysTick_CTRL_TICKINT_Msk           (1UL << SysTick_CTRL_TICKINT_Pos)              /*!< SysT
 978:Drivers/CMSIS/Include/core_cm7.h **** 
 979:Drivers/CMSIS/Include/core_cm7.h **** #define SysTick_CTRL_ENABLE_Pos             0U                                            /*!< SysT
 980:Drivers/CMSIS/Include/core_cm7.h **** #define SysTick_CTRL_ENABLE_Msk            (1UL /*<< SysTick_CTRL_ENABLE_Pos*/)           /*!< SysT
 981:Drivers/CMSIS/Include/core_cm7.h **** 
 982:Drivers/CMSIS/Include/core_cm7.h **** /* SysTick Reload Register Definitions */
 983:Drivers/CMSIS/Include/core_cm7.h **** #define SysTick_LOAD_RELOAD_Pos             0U                                            /*!< SysT
 984:Drivers/CMSIS/Include/core_cm7.h **** #define SysTick_LOAD_RELOAD_Msk            (0xFFFFFFUL /*<< SysTick_LOAD_RELOAD_Pos*/)    /*!< SysT
 985:Drivers/CMSIS/Include/core_cm7.h **** 
 986:Drivers/CMSIS/Include/core_cm7.h **** /* SysTick Current Register Definitions */
 987:Drivers/CMSIS/Include/core_cm7.h **** #define SysTick_VAL_CURRENT_Pos             0U                                            /*!< SysT
 988:Drivers/CMSIS/Include/core_cm7.h **** #define SysTick_VAL_CURRENT_Msk            (0xFFFFFFUL /*<< SysTick_VAL_CURRENT_Pos*/)    /*!< SysT
 989:Drivers/CMSIS/Include/core_cm7.h **** 
 990:Drivers/CMSIS/Include/core_cm7.h **** /* SysTick Calibration Register Definitions */
 991:Drivers/CMSIS/Include/core_cm7.h **** #define SysTick_CALIB_NOREF_Pos            31U                                            /*!< SysT
 992:Drivers/CMSIS/Include/core_cm7.h **** #define SysTick_CALIB_NOREF_Msk            (1UL << SysTick_CALIB_NOREF_Pos)               /*!< SysT
 993:Drivers/CMSIS/Include/core_cm7.h **** 
 994:Drivers/CMSIS/Include/core_cm7.h **** #define SysTick_CALIB_SKEW_Pos             30U                                            /*!< SysT
 995:Drivers/CMSIS/Include/core_cm7.h **** #define SysTick_CALIB_SKEW_Msk             (1UL << SysTick_CALIB_SKEW_Pos)                /*!< SysT
 996:Drivers/CMSIS/Include/core_cm7.h **** 
 997:Drivers/CMSIS/Include/core_cm7.h **** #define SysTick_CALIB_TENMS_Pos             0U                                            /*!< SysT
 998:Drivers/CMSIS/Include/core_cm7.h **** #define SysTick_CALIB_TENMS_Msk            (0xFFFFFFUL /*<< SysTick_CALIB_TENMS_Pos*/)    /*!< SysT
 999:Drivers/CMSIS/Include/core_cm7.h **** 
1000:Drivers/CMSIS/Include/core_cm7.h **** /*@} end of group CMSIS_SysTick */
1001:Drivers/CMSIS/Include/core_cm7.h **** 
1002:Drivers/CMSIS/Include/core_cm7.h **** 
1003:Drivers/CMSIS/Include/core_cm7.h **** /**
1004:Drivers/CMSIS/Include/core_cm7.h ****   \ingroup  CMSIS_core_register
1005:Drivers/CMSIS/Include/core_cm7.h ****   \defgroup CMSIS_ITM     Instrumentation Trace Macrocell (ITM)
1006:Drivers/CMSIS/Include/core_cm7.h ****   \brief    Type definitions for the Instrumentation Trace Macrocell (ITM)
1007:Drivers/CMSIS/Include/core_cm7.h ****   @{
1008:Drivers/CMSIS/Include/core_cm7.h ****  */
1009:Drivers/CMSIS/Include/core_cm7.h **** 
1010:Drivers/CMSIS/Include/core_cm7.h **** /**
1011:Drivers/CMSIS/Include/core_cm7.h ****   \brief  Structure type to access the Instrumentation Trace Macrocell Register (ITM).
1012:Drivers/CMSIS/Include/core_cm7.h ****  */
1013:Drivers/CMSIS/Include/core_cm7.h **** typedef struct
1014:Drivers/CMSIS/Include/core_cm7.h **** {
1015:Drivers/CMSIS/Include/core_cm7.h ****   __OM  union
1016:Drivers/CMSIS/Include/core_cm7.h ****   {
1017:Drivers/CMSIS/Include/core_cm7.h ****     __OM  uint8_t    u8;                 /*!< Offset: 0x000 ( /W)  ITM Stimulus Port 8-bit */
1018:Drivers/CMSIS/Include/core_cm7.h ****     __OM  uint16_t   u16;                /*!< Offset: 0x000 ( /W)  ITM Stimulus Port 16-bit */
1019:Drivers/CMSIS/Include/core_cm7.h ****     __OM  uint32_t   u32;                /*!< Offset: 0x000 ( /W)  ITM Stimulus Port 32-bit */
1020:Drivers/CMSIS/Include/core_cm7.h ****   }  PORT [32U];                         /*!< Offset: 0x000 ( /W)  ITM Stimulus Port Registers */
1021:Drivers/CMSIS/Include/core_cm7.h ****         uint32_t RESERVED0[864U];
1022:Drivers/CMSIS/Include/core_cm7.h ****   __IOM uint32_t TER;                    /*!< Offset: 0xE00 (R/W)  ITM Trace Enable Register */
1023:Drivers/CMSIS/Include/core_cm7.h ****         uint32_t RESERVED1[15U];
1024:Drivers/CMSIS/Include/core_cm7.h ****   __IOM uint32_t TPR;                    /*!< Offset: 0xE40 (R/W)  ITM Trace Privilege Register */
1025:Drivers/CMSIS/Include/core_cm7.h ****         uint32_t RESERVED2[15U];
1026:Drivers/CMSIS/Include/core_cm7.h ****   __IOM uint32_t TCR;                    /*!< Offset: 0xE80 (R/W)  ITM Trace Control Register */
ARM GAS  /var/folders/4f/bvl6__ys6qq7h5n0wwljfc200000gn/T//cchNM4Pb.s 			page 46


1027:Drivers/CMSIS/Include/core_cm7.h ****         uint32_t RESERVED3[29U];
1028:Drivers/CMSIS/Include/core_cm7.h ****   __OM  uint32_t IWR;                    /*!< Offset: 0xEF8 ( /W)  ITM Integration Write Register *
1029:Drivers/CMSIS/Include/core_cm7.h ****   __IM  uint32_t IRR;                    /*!< Offset: 0xEFC (R/ )  ITM Integration Read Register */
1030:Drivers/CMSIS/Include/core_cm7.h ****   __IOM uint32_t IMCR;                   /*!< Offset: 0xF00 (R/W)  ITM Integration Mode Control Reg
1031:Drivers/CMSIS/Include/core_cm7.h ****         uint32_t RESERVED4[43U];
1032:Drivers/CMSIS/Include/core_cm7.h ****   __OM  uint32_t LAR;                    /*!< Offset: 0xFB0 ( /W)  ITM Lock Access Register */
1033:Drivers/CMSIS/Include/core_cm7.h ****   __IM  uint32_t LSR;                    /*!< Offset: 0xFB4 (R/ )  ITM Lock Status Register */
1034:Drivers/CMSIS/Include/core_cm7.h ****         uint32_t RESERVED5[6U];
1035:Drivers/CMSIS/Include/core_cm7.h ****   __IM  uint32_t PID4;                   /*!< Offset: 0xFD0 (R/ )  ITM Peripheral Identification Re
1036:Drivers/CMSIS/Include/core_cm7.h ****   __IM  uint32_t PID5;                   /*!< Offset: 0xFD4 (R/ )  ITM Peripheral Identification Re
1037:Drivers/CMSIS/Include/core_cm7.h ****   __IM  uint32_t PID6;                   /*!< Offset: 0xFD8 (R/ )  ITM Peripheral Identification Re
1038:Drivers/CMSIS/Include/core_cm7.h ****   __IM  uint32_t PID7;                   /*!< Offset: 0xFDC (R/ )  ITM Peripheral Identification Re
1039:Drivers/CMSIS/Include/core_cm7.h ****   __IM  uint32_t PID0;                   /*!< Offset: 0xFE0 (R/ )  ITM Peripheral Identification Re
1040:Drivers/CMSIS/Include/core_cm7.h ****   __IM  uint32_t PID1;                   /*!< Offset: 0xFE4 (R/ )  ITM Peripheral Identification Re
1041:Drivers/CMSIS/Include/core_cm7.h ****   __IM  uint32_t PID2;                   /*!< Offset: 0xFE8 (R/ )  ITM Peripheral Identification Re
1042:Drivers/CMSIS/Include/core_cm7.h ****   __IM  uint32_t PID3;                   /*!< Offset: 0xFEC (R/ )  ITM Peripheral Identification Re
1043:Drivers/CMSIS/Include/core_cm7.h ****   __IM  uint32_t CID0;                   /*!< Offset: 0xFF0 (R/ )  ITM Component  Identification Re
1044:Drivers/CMSIS/Include/core_cm7.h ****   __IM  uint32_t CID1;                   /*!< Offset: 0xFF4 (R/ )  ITM Component  Identification Re
1045:Drivers/CMSIS/Include/core_cm7.h ****   __IM  uint32_t CID2;                   /*!< Offset: 0xFF8 (R/ )  ITM Component  Identification Re
1046:Drivers/CMSIS/Include/core_cm7.h ****   __IM  uint32_t CID3;                   /*!< Offset: 0xFFC (R/ )  ITM Component  Identification Re
1047:Drivers/CMSIS/Include/core_cm7.h **** } ITM_Type;
1048:Drivers/CMSIS/Include/core_cm7.h **** 
1049:Drivers/CMSIS/Include/core_cm7.h **** /* ITM Trace Privilege Register Definitions */
1050:Drivers/CMSIS/Include/core_cm7.h **** #define ITM_TPR_PRIVMASK_Pos                0U                                            /*!< ITM 
1051:Drivers/CMSIS/Include/core_cm7.h **** #define ITM_TPR_PRIVMASK_Msk               (0xFFFFFFFFUL /*<< ITM_TPR_PRIVMASK_Pos*/)     /*!< ITM 
1052:Drivers/CMSIS/Include/core_cm7.h **** 
1053:Drivers/CMSIS/Include/core_cm7.h **** /* ITM Trace Control Register Definitions */
1054:Drivers/CMSIS/Include/core_cm7.h **** #define ITM_TCR_BUSY_Pos                   23U                                            /*!< ITM 
1055:Drivers/CMSIS/Include/core_cm7.h **** #define ITM_TCR_BUSY_Msk                   (1UL << ITM_TCR_BUSY_Pos)                      /*!< ITM 
1056:Drivers/CMSIS/Include/core_cm7.h **** 
1057:Drivers/CMSIS/Include/core_cm7.h **** #define ITM_TCR_TraceBusID_Pos             16U                                            /*!< ITM 
1058:Drivers/CMSIS/Include/core_cm7.h **** #define ITM_TCR_TraceBusID_Msk             (0x7FUL << ITM_TCR_TraceBusID_Pos)             /*!< ITM 
1059:Drivers/CMSIS/Include/core_cm7.h **** 
1060:Drivers/CMSIS/Include/core_cm7.h **** #define ITM_TCR_GTSFREQ_Pos                10U                                            /*!< ITM 
1061:Drivers/CMSIS/Include/core_cm7.h **** #define ITM_TCR_GTSFREQ_Msk                (3UL << ITM_TCR_GTSFREQ_Pos)                   /*!< ITM 
1062:Drivers/CMSIS/Include/core_cm7.h **** 
1063:Drivers/CMSIS/Include/core_cm7.h **** #define ITM_TCR_TSPrescale_Pos              8U                                            /*!< ITM 
1064:Drivers/CMSIS/Include/core_cm7.h **** #define ITM_TCR_TSPrescale_Msk             (3UL << ITM_TCR_TSPrescale_Pos)                /*!< ITM 
1065:Drivers/CMSIS/Include/core_cm7.h **** 
1066:Drivers/CMSIS/Include/core_cm7.h **** #define ITM_TCR_SWOENA_Pos                  4U                                            /*!< ITM 
1067:Drivers/CMSIS/Include/core_cm7.h **** #define ITM_TCR_SWOENA_Msk                 (1UL << ITM_TCR_SWOENA_Pos)                    /*!< ITM 
1068:Drivers/CMSIS/Include/core_cm7.h **** 
1069:Drivers/CMSIS/Include/core_cm7.h **** #define ITM_TCR_DWTENA_Pos                  3U                                            /*!< ITM 
1070:Drivers/CMSIS/Include/core_cm7.h **** #define ITM_TCR_DWTENA_Msk                 (1UL << ITM_TCR_DWTENA_Pos)                    /*!< ITM 
1071:Drivers/CMSIS/Include/core_cm7.h **** 
1072:Drivers/CMSIS/Include/core_cm7.h **** #define ITM_TCR_SYNCENA_Pos                 2U                                            /*!< ITM 
1073:Drivers/CMSIS/Include/core_cm7.h **** #define ITM_TCR_SYNCENA_Msk                (1UL << ITM_TCR_SYNCENA_Pos)                   /*!< ITM 
1074:Drivers/CMSIS/Include/core_cm7.h **** 
1075:Drivers/CMSIS/Include/core_cm7.h **** #define ITM_TCR_TSENA_Pos                   1U                                            /*!< ITM 
1076:Drivers/CMSIS/Include/core_cm7.h **** #define ITM_TCR_TSENA_Msk                  (1UL << ITM_TCR_TSENA_Pos)                     /*!< ITM 
1077:Drivers/CMSIS/Include/core_cm7.h **** 
1078:Drivers/CMSIS/Include/core_cm7.h **** #define ITM_TCR_ITMENA_Pos                  0U                                            /*!< ITM 
1079:Drivers/CMSIS/Include/core_cm7.h **** #define ITM_TCR_ITMENA_Msk                 (1UL /*<< ITM_TCR_ITMENA_Pos*/)                /*!< ITM 
1080:Drivers/CMSIS/Include/core_cm7.h **** 
1081:Drivers/CMSIS/Include/core_cm7.h **** /* ITM Integration Write Register Definitions */
1082:Drivers/CMSIS/Include/core_cm7.h **** #define ITM_IWR_ATVALIDM_Pos                0U                                            /*!< ITM 
1083:Drivers/CMSIS/Include/core_cm7.h **** #define ITM_IWR_ATVALIDM_Msk               (1UL /*<< ITM_IWR_ATVALIDM_Pos*/)              /*!< ITM 
ARM GAS  /var/folders/4f/bvl6__ys6qq7h5n0wwljfc200000gn/T//cchNM4Pb.s 			page 47


1084:Drivers/CMSIS/Include/core_cm7.h **** 
1085:Drivers/CMSIS/Include/core_cm7.h **** /* ITM Integration Read Register Definitions */
1086:Drivers/CMSIS/Include/core_cm7.h **** #define ITM_IRR_ATREADYM_Pos                0U                                            /*!< ITM 
1087:Drivers/CMSIS/Include/core_cm7.h **** #define ITM_IRR_ATREADYM_Msk               (1UL /*<< ITM_IRR_ATREADYM_Pos*/)              /*!< ITM 
1088:Drivers/CMSIS/Include/core_cm7.h **** 
1089:Drivers/CMSIS/Include/core_cm7.h **** /* ITM Integration Mode Control Register Definitions */
1090:Drivers/CMSIS/Include/core_cm7.h **** #define ITM_IMCR_INTEGRATION_Pos            0U                                            /*!< ITM 
1091:Drivers/CMSIS/Include/core_cm7.h **** #define ITM_IMCR_INTEGRATION_Msk           (1UL /*<< ITM_IMCR_INTEGRATION_Pos*/)          /*!< ITM 
1092:Drivers/CMSIS/Include/core_cm7.h **** 
1093:Drivers/CMSIS/Include/core_cm7.h **** /* ITM Lock Status Register Definitions */
1094:Drivers/CMSIS/Include/core_cm7.h **** #define ITM_LSR_ByteAcc_Pos                 2U                                            /*!< ITM 
1095:Drivers/CMSIS/Include/core_cm7.h **** #define ITM_LSR_ByteAcc_Msk                (1UL << ITM_LSR_ByteAcc_Pos)                   /*!< ITM 
1096:Drivers/CMSIS/Include/core_cm7.h **** 
1097:Drivers/CMSIS/Include/core_cm7.h **** #define ITM_LSR_Access_Pos                  1U                                            /*!< ITM 
1098:Drivers/CMSIS/Include/core_cm7.h **** #define ITM_LSR_Access_Msk                 (1UL << ITM_LSR_Access_Pos)                    /*!< ITM 
1099:Drivers/CMSIS/Include/core_cm7.h **** 
1100:Drivers/CMSIS/Include/core_cm7.h **** #define ITM_LSR_Present_Pos                 0U                                            /*!< ITM 
1101:Drivers/CMSIS/Include/core_cm7.h **** #define ITM_LSR_Present_Msk                (1UL /*<< ITM_LSR_Present_Pos*/)               /*!< ITM 
1102:Drivers/CMSIS/Include/core_cm7.h **** 
1103:Drivers/CMSIS/Include/core_cm7.h **** /*@}*/ /* end of group CMSIS_ITM */
1104:Drivers/CMSIS/Include/core_cm7.h **** 
1105:Drivers/CMSIS/Include/core_cm7.h **** 
1106:Drivers/CMSIS/Include/core_cm7.h **** /**
1107:Drivers/CMSIS/Include/core_cm7.h ****   \ingroup  CMSIS_core_register
1108:Drivers/CMSIS/Include/core_cm7.h ****   \defgroup CMSIS_DWT     Data Watchpoint and Trace (DWT)
1109:Drivers/CMSIS/Include/core_cm7.h ****   \brief    Type definitions for the Data Watchpoint and Trace (DWT)
1110:Drivers/CMSIS/Include/core_cm7.h ****   @{
1111:Drivers/CMSIS/Include/core_cm7.h ****  */
1112:Drivers/CMSIS/Include/core_cm7.h **** 
1113:Drivers/CMSIS/Include/core_cm7.h **** /**
1114:Drivers/CMSIS/Include/core_cm7.h ****   \brief  Structure type to access the Data Watchpoint and Trace Register (DWT).
1115:Drivers/CMSIS/Include/core_cm7.h ****  */
1116:Drivers/CMSIS/Include/core_cm7.h **** typedef struct
1117:Drivers/CMSIS/Include/core_cm7.h **** {
1118:Drivers/CMSIS/Include/core_cm7.h ****   __IOM uint32_t CTRL;                   /*!< Offset: 0x000 (R/W)  Control Register */
1119:Drivers/CMSIS/Include/core_cm7.h ****   __IOM uint32_t CYCCNT;                 /*!< Offset: 0x004 (R/W)  Cycle Count Register */
1120:Drivers/CMSIS/Include/core_cm7.h ****   __IOM uint32_t CPICNT;                 /*!< Offset: 0x008 (R/W)  CPI Count Register */
1121:Drivers/CMSIS/Include/core_cm7.h ****   __IOM uint32_t EXCCNT;                 /*!< Offset: 0x00C (R/W)  Exception Overhead Count Registe
1122:Drivers/CMSIS/Include/core_cm7.h ****   __IOM uint32_t SLEEPCNT;               /*!< Offset: 0x010 (R/W)  Sleep Count Register */
1123:Drivers/CMSIS/Include/core_cm7.h ****   __IOM uint32_t LSUCNT;                 /*!< Offset: 0x014 (R/W)  LSU Count Register */
1124:Drivers/CMSIS/Include/core_cm7.h ****   __IOM uint32_t FOLDCNT;                /*!< Offset: 0x018 (R/W)  Folded-instruction Count Registe
1125:Drivers/CMSIS/Include/core_cm7.h ****   __IM  uint32_t PCSR;                   /*!< Offset: 0x01C (R/ )  Program Counter Sample Register 
1126:Drivers/CMSIS/Include/core_cm7.h ****   __IOM uint32_t COMP0;                  /*!< Offset: 0x020 (R/W)  Comparator Register 0 */
1127:Drivers/CMSIS/Include/core_cm7.h ****   __IOM uint32_t MASK0;                  /*!< Offset: 0x024 (R/W)  Mask Register 0 */
1128:Drivers/CMSIS/Include/core_cm7.h ****   __IOM uint32_t FUNCTION0;              /*!< Offset: 0x028 (R/W)  Function Register 0 */
1129:Drivers/CMSIS/Include/core_cm7.h ****         uint32_t RESERVED0[1U];
1130:Drivers/CMSIS/Include/core_cm7.h ****   __IOM uint32_t COMP1;                  /*!< Offset: 0x030 (R/W)  Comparator Register 1 */
1131:Drivers/CMSIS/Include/core_cm7.h ****   __IOM uint32_t MASK1;                  /*!< Offset: 0x034 (R/W)  Mask Register 1 */
1132:Drivers/CMSIS/Include/core_cm7.h ****   __IOM uint32_t FUNCTION1;              /*!< Offset: 0x038 (R/W)  Function Register 1 */
1133:Drivers/CMSIS/Include/core_cm7.h ****         uint32_t RESERVED1[1U];
1134:Drivers/CMSIS/Include/core_cm7.h ****   __IOM uint32_t COMP2;                  /*!< Offset: 0x040 (R/W)  Comparator Register 2 */
1135:Drivers/CMSIS/Include/core_cm7.h ****   __IOM uint32_t MASK2;                  /*!< Offset: 0x044 (R/W)  Mask Register 2 */
1136:Drivers/CMSIS/Include/core_cm7.h ****   __IOM uint32_t FUNCTION2;              /*!< Offset: 0x048 (R/W)  Function Register 2 */
1137:Drivers/CMSIS/Include/core_cm7.h ****         uint32_t RESERVED2[1U];
1138:Drivers/CMSIS/Include/core_cm7.h ****   __IOM uint32_t COMP3;                  /*!< Offset: 0x050 (R/W)  Comparator Register 3 */
1139:Drivers/CMSIS/Include/core_cm7.h ****   __IOM uint32_t MASK3;                  /*!< Offset: 0x054 (R/W)  Mask Register 3 */
1140:Drivers/CMSIS/Include/core_cm7.h ****   __IOM uint32_t FUNCTION3;              /*!< Offset: 0x058 (R/W)  Function Register 3 */
ARM GAS  /var/folders/4f/bvl6__ys6qq7h5n0wwljfc200000gn/T//cchNM4Pb.s 			page 48


1141:Drivers/CMSIS/Include/core_cm7.h ****         uint32_t RESERVED3[981U];
1142:Drivers/CMSIS/Include/core_cm7.h ****   __OM  uint32_t LAR;                    /*!< Offset: 0xFB0 (  W)  Lock Access Register */
1143:Drivers/CMSIS/Include/core_cm7.h ****   __IM  uint32_t LSR;                    /*!< Offset: 0xFB4 (R  )  Lock Status Register */
1144:Drivers/CMSIS/Include/core_cm7.h **** } DWT_Type;
1145:Drivers/CMSIS/Include/core_cm7.h **** 
1146:Drivers/CMSIS/Include/core_cm7.h **** /* DWT Control Register Definitions */
1147:Drivers/CMSIS/Include/core_cm7.h **** #define DWT_CTRL_NUMCOMP_Pos               28U                                         /*!< DWT CTR
1148:Drivers/CMSIS/Include/core_cm7.h **** #define DWT_CTRL_NUMCOMP_Msk               (0xFUL << DWT_CTRL_NUMCOMP_Pos)             /*!< DWT CTR
1149:Drivers/CMSIS/Include/core_cm7.h **** 
1150:Drivers/CMSIS/Include/core_cm7.h **** #define DWT_CTRL_NOTRCPKT_Pos              27U                                         /*!< DWT CTR
1151:Drivers/CMSIS/Include/core_cm7.h **** #define DWT_CTRL_NOTRCPKT_Msk              (0x1UL << DWT_CTRL_NOTRCPKT_Pos)            /*!< DWT CTR
1152:Drivers/CMSIS/Include/core_cm7.h **** 
1153:Drivers/CMSIS/Include/core_cm7.h **** #define DWT_CTRL_NOEXTTRIG_Pos             26U                                         /*!< DWT CTR
1154:Drivers/CMSIS/Include/core_cm7.h **** #define DWT_CTRL_NOEXTTRIG_Msk             (0x1UL << DWT_CTRL_NOEXTTRIG_Pos)           /*!< DWT CTR
1155:Drivers/CMSIS/Include/core_cm7.h **** 
1156:Drivers/CMSIS/Include/core_cm7.h **** #define DWT_CTRL_NOCYCCNT_Pos              25U                                         /*!< DWT CTR
1157:Drivers/CMSIS/Include/core_cm7.h **** #define DWT_CTRL_NOCYCCNT_Msk              (0x1UL << DWT_CTRL_NOCYCCNT_Pos)            /*!< DWT CTR
1158:Drivers/CMSIS/Include/core_cm7.h **** 
1159:Drivers/CMSIS/Include/core_cm7.h **** #define DWT_CTRL_NOPRFCNT_Pos              24U                                         /*!< DWT CTR
1160:Drivers/CMSIS/Include/core_cm7.h **** #define DWT_CTRL_NOPRFCNT_Msk              (0x1UL << DWT_CTRL_NOPRFCNT_Pos)            /*!< DWT CTR
1161:Drivers/CMSIS/Include/core_cm7.h **** 
1162:Drivers/CMSIS/Include/core_cm7.h **** #define DWT_CTRL_CYCEVTENA_Pos             22U                                         /*!< DWT CTR
1163:Drivers/CMSIS/Include/core_cm7.h **** #define DWT_CTRL_CYCEVTENA_Msk             (0x1UL << DWT_CTRL_CYCEVTENA_Pos)           /*!< DWT CTR
1164:Drivers/CMSIS/Include/core_cm7.h **** 
1165:Drivers/CMSIS/Include/core_cm7.h **** #define DWT_CTRL_FOLDEVTENA_Pos            21U                                         /*!< DWT CTR
1166:Drivers/CMSIS/Include/core_cm7.h **** #define DWT_CTRL_FOLDEVTENA_Msk            (0x1UL << DWT_CTRL_FOLDEVTENA_Pos)          /*!< DWT CTR
1167:Drivers/CMSIS/Include/core_cm7.h **** 
1168:Drivers/CMSIS/Include/core_cm7.h **** #define DWT_CTRL_LSUEVTENA_Pos             20U                                         /*!< DWT CTR
1169:Drivers/CMSIS/Include/core_cm7.h **** #define DWT_CTRL_LSUEVTENA_Msk             (0x1UL << DWT_CTRL_LSUEVTENA_Pos)           /*!< DWT CTR
1170:Drivers/CMSIS/Include/core_cm7.h **** 
1171:Drivers/CMSIS/Include/core_cm7.h **** #define DWT_CTRL_SLEEPEVTENA_Pos           19U                                         /*!< DWT CTR
1172:Drivers/CMSIS/Include/core_cm7.h **** #define DWT_CTRL_SLEEPEVTENA_Msk           (0x1UL << DWT_CTRL_SLEEPEVTENA_Pos)         /*!< DWT CTR
1173:Drivers/CMSIS/Include/core_cm7.h **** 
1174:Drivers/CMSIS/Include/core_cm7.h **** #define DWT_CTRL_EXCEVTENA_Pos             18U                                         /*!< DWT CTR
1175:Drivers/CMSIS/Include/core_cm7.h **** #define DWT_CTRL_EXCEVTENA_Msk             (0x1UL << DWT_CTRL_EXCEVTENA_Pos)           /*!< DWT CTR
1176:Drivers/CMSIS/Include/core_cm7.h **** 
1177:Drivers/CMSIS/Include/core_cm7.h **** #define DWT_CTRL_CPIEVTENA_Pos             17U                                         /*!< DWT CTR
1178:Drivers/CMSIS/Include/core_cm7.h **** #define DWT_CTRL_CPIEVTENA_Msk             (0x1UL << DWT_CTRL_CPIEVTENA_Pos)           /*!< DWT CTR
1179:Drivers/CMSIS/Include/core_cm7.h **** 
1180:Drivers/CMSIS/Include/core_cm7.h **** #define DWT_CTRL_EXCTRCENA_Pos             16U                                         /*!< DWT CTR
1181:Drivers/CMSIS/Include/core_cm7.h **** #define DWT_CTRL_EXCTRCENA_Msk             (0x1UL << DWT_CTRL_EXCTRCENA_Pos)           /*!< DWT CTR
1182:Drivers/CMSIS/Include/core_cm7.h **** 
1183:Drivers/CMSIS/Include/core_cm7.h **** #define DWT_CTRL_PCSAMPLENA_Pos            12U                                         /*!< DWT CTR
1184:Drivers/CMSIS/Include/core_cm7.h **** #define DWT_CTRL_PCSAMPLENA_Msk            (0x1UL << DWT_CTRL_PCSAMPLENA_Pos)          /*!< DWT CTR
1185:Drivers/CMSIS/Include/core_cm7.h **** 
1186:Drivers/CMSIS/Include/core_cm7.h **** #define DWT_CTRL_SYNCTAP_Pos               10U                                         /*!< DWT CTR
1187:Drivers/CMSIS/Include/core_cm7.h **** #define DWT_CTRL_SYNCTAP_Msk               (0x3UL << DWT_CTRL_SYNCTAP_Pos)             /*!< DWT CTR
1188:Drivers/CMSIS/Include/core_cm7.h **** 
1189:Drivers/CMSIS/Include/core_cm7.h **** #define DWT_CTRL_CYCTAP_Pos                 9U                                         /*!< DWT CTR
1190:Drivers/CMSIS/Include/core_cm7.h **** #define DWT_CTRL_CYCTAP_Msk                (0x1UL << DWT_CTRL_CYCTAP_Pos)              /*!< DWT CTR
1191:Drivers/CMSIS/Include/core_cm7.h **** 
1192:Drivers/CMSIS/Include/core_cm7.h **** #define DWT_CTRL_POSTINIT_Pos               5U                                         /*!< DWT CTR
1193:Drivers/CMSIS/Include/core_cm7.h **** #define DWT_CTRL_POSTINIT_Msk              (0xFUL << DWT_CTRL_POSTINIT_Pos)            /*!< DWT CTR
1194:Drivers/CMSIS/Include/core_cm7.h **** 
1195:Drivers/CMSIS/Include/core_cm7.h **** #define DWT_CTRL_POSTPRESET_Pos             1U                                         /*!< DWT CTR
1196:Drivers/CMSIS/Include/core_cm7.h **** #define DWT_CTRL_POSTPRESET_Msk            (0xFUL << DWT_CTRL_POSTPRESET_Pos)          /*!< DWT CTR
1197:Drivers/CMSIS/Include/core_cm7.h **** 
ARM GAS  /var/folders/4f/bvl6__ys6qq7h5n0wwljfc200000gn/T//cchNM4Pb.s 			page 49


1198:Drivers/CMSIS/Include/core_cm7.h **** #define DWT_CTRL_CYCCNTENA_Pos              0U                                         /*!< DWT CTR
1199:Drivers/CMSIS/Include/core_cm7.h **** #define DWT_CTRL_CYCCNTENA_Msk             (0x1UL /*<< DWT_CTRL_CYCCNTENA_Pos*/)       /*!< DWT CTR
1200:Drivers/CMSIS/Include/core_cm7.h **** 
1201:Drivers/CMSIS/Include/core_cm7.h **** /* DWT CPI Count Register Definitions */
1202:Drivers/CMSIS/Include/core_cm7.h **** #define DWT_CPICNT_CPICNT_Pos               0U                                         /*!< DWT CPI
1203:Drivers/CMSIS/Include/core_cm7.h **** #define DWT_CPICNT_CPICNT_Msk              (0xFFUL /*<< DWT_CPICNT_CPICNT_Pos*/)       /*!< DWT CPI
1204:Drivers/CMSIS/Include/core_cm7.h **** 
1205:Drivers/CMSIS/Include/core_cm7.h **** /* DWT Exception Overhead Count Register Definitions */
1206:Drivers/CMSIS/Include/core_cm7.h **** #define DWT_EXCCNT_EXCCNT_Pos               0U                                         /*!< DWT EXC
1207:Drivers/CMSIS/Include/core_cm7.h **** #define DWT_EXCCNT_EXCCNT_Msk              (0xFFUL /*<< DWT_EXCCNT_EXCCNT_Pos*/)       /*!< DWT EXC
1208:Drivers/CMSIS/Include/core_cm7.h **** 
1209:Drivers/CMSIS/Include/core_cm7.h **** /* DWT Sleep Count Register Definitions */
1210:Drivers/CMSIS/Include/core_cm7.h **** #define DWT_SLEEPCNT_SLEEPCNT_Pos           0U                                         /*!< DWT SLE
1211:Drivers/CMSIS/Include/core_cm7.h **** #define DWT_SLEEPCNT_SLEEPCNT_Msk          (0xFFUL /*<< DWT_SLEEPCNT_SLEEPCNT_Pos*/)   /*!< DWT SLE
1212:Drivers/CMSIS/Include/core_cm7.h **** 
1213:Drivers/CMSIS/Include/core_cm7.h **** /* DWT LSU Count Register Definitions */
1214:Drivers/CMSIS/Include/core_cm7.h **** #define DWT_LSUCNT_LSUCNT_Pos               0U                                         /*!< DWT LSU
1215:Drivers/CMSIS/Include/core_cm7.h **** #define DWT_LSUCNT_LSUCNT_Msk              (0xFFUL /*<< DWT_LSUCNT_LSUCNT_Pos*/)       /*!< DWT LSU
1216:Drivers/CMSIS/Include/core_cm7.h **** 
1217:Drivers/CMSIS/Include/core_cm7.h **** /* DWT Folded-instruction Count Register Definitions */
1218:Drivers/CMSIS/Include/core_cm7.h **** #define DWT_FOLDCNT_FOLDCNT_Pos             0U                                         /*!< DWT FOL
1219:Drivers/CMSIS/Include/core_cm7.h **** #define DWT_FOLDCNT_FOLDCNT_Msk            (0xFFUL /*<< DWT_FOLDCNT_FOLDCNT_Pos*/)     /*!< DWT FOL
1220:Drivers/CMSIS/Include/core_cm7.h **** 
1221:Drivers/CMSIS/Include/core_cm7.h **** /* DWT Comparator Mask Register Definitions */
1222:Drivers/CMSIS/Include/core_cm7.h **** #define DWT_MASK_MASK_Pos                   0U                                         /*!< DWT MAS
1223:Drivers/CMSIS/Include/core_cm7.h **** #define DWT_MASK_MASK_Msk                  (0x1FUL /*<< DWT_MASK_MASK_Pos*/)           /*!< DWT MAS
1224:Drivers/CMSIS/Include/core_cm7.h **** 
1225:Drivers/CMSIS/Include/core_cm7.h **** /* DWT Comparator Function Register Definitions */
1226:Drivers/CMSIS/Include/core_cm7.h **** #define DWT_FUNCTION_MATCHED_Pos           24U                                         /*!< DWT FUN
1227:Drivers/CMSIS/Include/core_cm7.h **** #define DWT_FUNCTION_MATCHED_Msk           (0x1UL << DWT_FUNCTION_MATCHED_Pos)         /*!< DWT FUN
1228:Drivers/CMSIS/Include/core_cm7.h **** 
1229:Drivers/CMSIS/Include/core_cm7.h **** #define DWT_FUNCTION_DATAVADDR1_Pos        16U                                         /*!< DWT FUN
1230:Drivers/CMSIS/Include/core_cm7.h **** #define DWT_FUNCTION_DATAVADDR1_Msk        (0xFUL << DWT_FUNCTION_DATAVADDR1_Pos)      /*!< DWT FUN
1231:Drivers/CMSIS/Include/core_cm7.h **** 
1232:Drivers/CMSIS/Include/core_cm7.h **** #define DWT_FUNCTION_DATAVADDR0_Pos        12U                                         /*!< DWT FUN
1233:Drivers/CMSIS/Include/core_cm7.h **** #define DWT_FUNCTION_DATAVADDR0_Msk        (0xFUL << DWT_FUNCTION_DATAVADDR0_Pos)      /*!< DWT FUN
1234:Drivers/CMSIS/Include/core_cm7.h **** 
1235:Drivers/CMSIS/Include/core_cm7.h **** #define DWT_FUNCTION_DATAVSIZE_Pos         10U                                         /*!< DWT FUN
1236:Drivers/CMSIS/Include/core_cm7.h **** #define DWT_FUNCTION_DATAVSIZE_Msk         (0x3UL << DWT_FUNCTION_DATAVSIZE_Pos)       /*!< DWT FUN
1237:Drivers/CMSIS/Include/core_cm7.h **** 
1238:Drivers/CMSIS/Include/core_cm7.h **** #define DWT_FUNCTION_LNK1ENA_Pos            9U                                         /*!< DWT FUN
1239:Drivers/CMSIS/Include/core_cm7.h **** #define DWT_FUNCTION_LNK1ENA_Msk           (0x1UL << DWT_FUNCTION_LNK1ENA_Pos)         /*!< DWT FUN
1240:Drivers/CMSIS/Include/core_cm7.h **** 
1241:Drivers/CMSIS/Include/core_cm7.h **** #define DWT_FUNCTION_DATAVMATCH_Pos         8U                                         /*!< DWT FUN
1242:Drivers/CMSIS/Include/core_cm7.h **** #define DWT_FUNCTION_DATAVMATCH_Msk        (0x1UL << DWT_FUNCTION_DATAVMATCH_Pos)      /*!< DWT FUN
1243:Drivers/CMSIS/Include/core_cm7.h **** 
1244:Drivers/CMSIS/Include/core_cm7.h **** #define DWT_FUNCTION_CYCMATCH_Pos           7U                                         /*!< DWT FUN
1245:Drivers/CMSIS/Include/core_cm7.h **** #define DWT_FUNCTION_CYCMATCH_Msk          (0x1UL << DWT_FUNCTION_CYCMATCH_Pos)        /*!< DWT FUN
1246:Drivers/CMSIS/Include/core_cm7.h **** 
1247:Drivers/CMSIS/Include/core_cm7.h **** #define DWT_FUNCTION_EMITRANGE_Pos          5U                                         /*!< DWT FUN
1248:Drivers/CMSIS/Include/core_cm7.h **** #define DWT_FUNCTION_EMITRANGE_Msk         (0x1UL << DWT_FUNCTION_EMITRANGE_Pos)       /*!< DWT FUN
1249:Drivers/CMSIS/Include/core_cm7.h **** 
1250:Drivers/CMSIS/Include/core_cm7.h **** #define DWT_FUNCTION_FUNCTION_Pos           0U                                         /*!< DWT FUN
1251:Drivers/CMSIS/Include/core_cm7.h **** #define DWT_FUNCTION_FUNCTION_Msk          (0xFUL /*<< DWT_FUNCTION_FUNCTION_Pos*/)    /*!< DWT FUN
1252:Drivers/CMSIS/Include/core_cm7.h **** 
1253:Drivers/CMSIS/Include/core_cm7.h **** /*@}*/ /* end of group CMSIS_DWT */
1254:Drivers/CMSIS/Include/core_cm7.h **** 
ARM GAS  /var/folders/4f/bvl6__ys6qq7h5n0wwljfc200000gn/T//cchNM4Pb.s 			page 50


1255:Drivers/CMSIS/Include/core_cm7.h **** 
1256:Drivers/CMSIS/Include/core_cm7.h **** /**
1257:Drivers/CMSIS/Include/core_cm7.h ****   \ingroup  CMSIS_core_register
1258:Drivers/CMSIS/Include/core_cm7.h ****   \defgroup CMSIS_TPI     Trace Port Interface (TPI)
1259:Drivers/CMSIS/Include/core_cm7.h ****   \brief    Type definitions for the Trace Port Interface (TPI)
1260:Drivers/CMSIS/Include/core_cm7.h ****   @{
1261:Drivers/CMSIS/Include/core_cm7.h ****  */
1262:Drivers/CMSIS/Include/core_cm7.h **** 
1263:Drivers/CMSIS/Include/core_cm7.h **** /**
1264:Drivers/CMSIS/Include/core_cm7.h ****   \brief  Structure type to access the Trace Port Interface Register (TPI).
1265:Drivers/CMSIS/Include/core_cm7.h ****  */
1266:Drivers/CMSIS/Include/core_cm7.h **** typedef struct
1267:Drivers/CMSIS/Include/core_cm7.h **** {
1268:Drivers/CMSIS/Include/core_cm7.h ****   __IM  uint32_t SSPSR;                  /*!< Offset: 0x000 (R/ )  Supported Parallel Port Size Reg
1269:Drivers/CMSIS/Include/core_cm7.h ****   __IOM uint32_t CSPSR;                  /*!< Offset: 0x004 (R/W)  Current Parallel Port Size Regis
1270:Drivers/CMSIS/Include/core_cm7.h ****         uint32_t RESERVED0[2U];
1271:Drivers/CMSIS/Include/core_cm7.h ****   __IOM uint32_t ACPR;                   /*!< Offset: 0x010 (R/W)  Asynchronous Clock Prescaler Reg
1272:Drivers/CMSIS/Include/core_cm7.h ****         uint32_t RESERVED1[55U];
1273:Drivers/CMSIS/Include/core_cm7.h ****   __IOM uint32_t SPPR;                   /*!< Offset: 0x0F0 (R/W)  Selected Pin Protocol Register *
1274:Drivers/CMSIS/Include/core_cm7.h ****         uint32_t RESERVED2[131U];
1275:Drivers/CMSIS/Include/core_cm7.h ****   __IM  uint32_t FFSR;                   /*!< Offset: 0x300 (R/ )  Formatter and Flush Status Regis
1276:Drivers/CMSIS/Include/core_cm7.h ****   __IOM uint32_t FFCR;                   /*!< Offset: 0x304 (R/W)  Formatter and Flush Control Regi
1277:Drivers/CMSIS/Include/core_cm7.h ****   __IM  uint32_t FSCR;                   /*!< Offset: 0x308 (R/ )  Formatter Synchronization Counte
1278:Drivers/CMSIS/Include/core_cm7.h ****         uint32_t RESERVED3[759U];
1279:Drivers/CMSIS/Include/core_cm7.h ****   __IM  uint32_t TRIGGER;                /*!< Offset: 0xEE8 (R/ )  TRIGGER Register */
1280:Drivers/CMSIS/Include/core_cm7.h ****   __IM  uint32_t FIFO0;                  /*!< Offset: 0xEEC (R/ )  Integration ETM Data */
1281:Drivers/CMSIS/Include/core_cm7.h ****   __IM  uint32_t ITATBCTR2;              /*!< Offset: 0xEF0 (R/ )  ITATBCTR2 */
1282:Drivers/CMSIS/Include/core_cm7.h ****         uint32_t RESERVED4[1U];
1283:Drivers/CMSIS/Include/core_cm7.h ****   __IM  uint32_t ITATBCTR0;              /*!< Offset: 0xEF8 (R/ )  ITATBCTR0 */
1284:Drivers/CMSIS/Include/core_cm7.h ****   __IM  uint32_t FIFO1;                  /*!< Offset: 0xEFC (R/ )  Integration ITM Data */
1285:Drivers/CMSIS/Include/core_cm7.h ****   __IOM uint32_t ITCTRL;                 /*!< Offset: 0xF00 (R/W)  Integration Mode Control */
1286:Drivers/CMSIS/Include/core_cm7.h ****         uint32_t RESERVED5[39U];
1287:Drivers/CMSIS/Include/core_cm7.h ****   __IOM uint32_t CLAIMSET;               /*!< Offset: 0xFA0 (R/W)  Claim tag set */
1288:Drivers/CMSIS/Include/core_cm7.h ****   __IOM uint32_t CLAIMCLR;               /*!< Offset: 0xFA4 (R/W)  Claim tag clear */
1289:Drivers/CMSIS/Include/core_cm7.h ****         uint32_t RESERVED7[8U];
1290:Drivers/CMSIS/Include/core_cm7.h ****   __IM  uint32_t DEVID;                  /*!< Offset: 0xFC8 (R/ )  TPIU_DEVID */
1291:Drivers/CMSIS/Include/core_cm7.h ****   __IM  uint32_t DEVTYPE;                /*!< Offset: 0xFCC (R/ )  TPIU_DEVTYPE */
1292:Drivers/CMSIS/Include/core_cm7.h **** } TPI_Type;
1293:Drivers/CMSIS/Include/core_cm7.h **** 
1294:Drivers/CMSIS/Include/core_cm7.h **** /* TPI Asynchronous Clock Prescaler Register Definitions */
1295:Drivers/CMSIS/Include/core_cm7.h **** #define TPI_ACPR_PRESCALER_Pos              0U                                         /*!< TPI ACP
1296:Drivers/CMSIS/Include/core_cm7.h **** #define TPI_ACPR_PRESCALER_Msk             (0x1FFFUL /*<< TPI_ACPR_PRESCALER_Pos*/)    /*!< TPI ACP
1297:Drivers/CMSIS/Include/core_cm7.h **** 
1298:Drivers/CMSIS/Include/core_cm7.h **** /* TPI Selected Pin Protocol Register Definitions */
1299:Drivers/CMSIS/Include/core_cm7.h **** #define TPI_SPPR_TXMODE_Pos                 0U                                         /*!< TPI SPP
1300:Drivers/CMSIS/Include/core_cm7.h **** #define TPI_SPPR_TXMODE_Msk                (0x3UL /*<< TPI_SPPR_TXMODE_Pos*/)          /*!< TPI SPP
1301:Drivers/CMSIS/Include/core_cm7.h **** 
1302:Drivers/CMSIS/Include/core_cm7.h **** /* TPI Formatter and Flush Status Register Definitions */
1303:Drivers/CMSIS/Include/core_cm7.h **** #define TPI_FFSR_FtNonStop_Pos              3U                                         /*!< TPI FFS
1304:Drivers/CMSIS/Include/core_cm7.h **** #define TPI_FFSR_FtNonStop_Msk             (0x1UL << TPI_FFSR_FtNonStop_Pos)           /*!< TPI FFS
1305:Drivers/CMSIS/Include/core_cm7.h **** 
1306:Drivers/CMSIS/Include/core_cm7.h **** #define TPI_FFSR_TCPresent_Pos              2U                                         /*!< TPI FFS
1307:Drivers/CMSIS/Include/core_cm7.h **** #define TPI_FFSR_TCPresent_Msk             (0x1UL << TPI_FFSR_TCPresent_Pos)           /*!< TPI FFS
1308:Drivers/CMSIS/Include/core_cm7.h **** 
1309:Drivers/CMSIS/Include/core_cm7.h **** #define TPI_FFSR_FtStopped_Pos              1U                                         /*!< TPI FFS
1310:Drivers/CMSIS/Include/core_cm7.h **** #define TPI_FFSR_FtStopped_Msk             (0x1UL << TPI_FFSR_FtStopped_Pos)           /*!< TPI FFS
1311:Drivers/CMSIS/Include/core_cm7.h **** 
ARM GAS  /var/folders/4f/bvl6__ys6qq7h5n0wwljfc200000gn/T//cchNM4Pb.s 			page 51


1312:Drivers/CMSIS/Include/core_cm7.h **** #define TPI_FFSR_FlInProg_Pos               0U                                         /*!< TPI FFS
1313:Drivers/CMSIS/Include/core_cm7.h **** #define TPI_FFSR_FlInProg_Msk              (0x1UL /*<< TPI_FFSR_FlInProg_Pos*/)        /*!< TPI FFS
1314:Drivers/CMSIS/Include/core_cm7.h **** 
1315:Drivers/CMSIS/Include/core_cm7.h **** /* TPI Formatter and Flush Control Register Definitions */
1316:Drivers/CMSIS/Include/core_cm7.h **** #define TPI_FFCR_TrigIn_Pos                 8U                                         /*!< TPI FFC
1317:Drivers/CMSIS/Include/core_cm7.h **** #define TPI_FFCR_TrigIn_Msk                (0x1UL << TPI_FFCR_TrigIn_Pos)              /*!< TPI FFC
1318:Drivers/CMSIS/Include/core_cm7.h **** 
1319:Drivers/CMSIS/Include/core_cm7.h **** #define TPI_FFCR_EnFCont_Pos                1U                                         /*!< TPI FFC
1320:Drivers/CMSIS/Include/core_cm7.h **** #define TPI_FFCR_EnFCont_Msk               (0x1UL << TPI_FFCR_EnFCont_Pos)             /*!< TPI FFC
1321:Drivers/CMSIS/Include/core_cm7.h **** 
1322:Drivers/CMSIS/Include/core_cm7.h **** /* TPI TRIGGER Register Definitions */
1323:Drivers/CMSIS/Include/core_cm7.h **** #define TPI_TRIGGER_TRIGGER_Pos             0U                                         /*!< TPI TRI
1324:Drivers/CMSIS/Include/core_cm7.h **** #define TPI_TRIGGER_TRIGGER_Msk            (0x1UL /*<< TPI_TRIGGER_TRIGGER_Pos*/)      /*!< TPI TRI
1325:Drivers/CMSIS/Include/core_cm7.h **** 
1326:Drivers/CMSIS/Include/core_cm7.h **** /* TPI Integration ETM Data Register Definitions (FIFO0) */
1327:Drivers/CMSIS/Include/core_cm7.h **** #define TPI_FIFO0_ITM_ATVALID_Pos          29U                                         /*!< TPI FIF
1328:Drivers/CMSIS/Include/core_cm7.h **** #define TPI_FIFO0_ITM_ATVALID_Msk          (0x3UL << TPI_FIFO0_ITM_ATVALID_Pos)        /*!< TPI FIF
1329:Drivers/CMSIS/Include/core_cm7.h **** 
1330:Drivers/CMSIS/Include/core_cm7.h **** #define TPI_FIFO0_ITM_bytecount_Pos        27U                                         /*!< TPI FIF
1331:Drivers/CMSIS/Include/core_cm7.h **** #define TPI_FIFO0_ITM_bytecount_Msk        (0x3UL << TPI_FIFO0_ITM_bytecount_Pos)      /*!< TPI FIF
1332:Drivers/CMSIS/Include/core_cm7.h **** 
1333:Drivers/CMSIS/Include/core_cm7.h **** #define TPI_FIFO0_ETM_ATVALID_Pos          26U                                         /*!< TPI FIF
1334:Drivers/CMSIS/Include/core_cm7.h **** #define TPI_FIFO0_ETM_ATVALID_Msk          (0x3UL << TPI_FIFO0_ETM_ATVALID_Pos)        /*!< TPI FIF
1335:Drivers/CMSIS/Include/core_cm7.h **** 
1336:Drivers/CMSIS/Include/core_cm7.h **** #define TPI_FIFO0_ETM_bytecount_Pos        24U                                         /*!< TPI FIF
1337:Drivers/CMSIS/Include/core_cm7.h **** #define TPI_FIFO0_ETM_bytecount_Msk        (0x3UL << TPI_FIFO0_ETM_bytecount_Pos)      /*!< TPI FIF
1338:Drivers/CMSIS/Include/core_cm7.h **** 
1339:Drivers/CMSIS/Include/core_cm7.h **** #define TPI_FIFO0_ETM2_Pos                 16U                                         /*!< TPI FIF
1340:Drivers/CMSIS/Include/core_cm7.h **** #define TPI_FIFO0_ETM2_Msk                 (0xFFUL << TPI_FIFO0_ETM2_Pos)              /*!< TPI FIF
1341:Drivers/CMSIS/Include/core_cm7.h **** 
1342:Drivers/CMSIS/Include/core_cm7.h **** #define TPI_FIFO0_ETM1_Pos                  8U                                         /*!< TPI FIF
1343:Drivers/CMSIS/Include/core_cm7.h **** #define TPI_FIFO0_ETM1_Msk                 (0xFFUL << TPI_FIFO0_ETM1_Pos)              /*!< TPI FIF
1344:Drivers/CMSIS/Include/core_cm7.h **** 
1345:Drivers/CMSIS/Include/core_cm7.h **** #define TPI_FIFO0_ETM0_Pos                  0U                                         /*!< TPI FIF
1346:Drivers/CMSIS/Include/core_cm7.h **** #define TPI_FIFO0_ETM0_Msk                 (0xFFUL /*<< TPI_FIFO0_ETM0_Pos*/)          /*!< TPI FIF
1347:Drivers/CMSIS/Include/core_cm7.h **** 
1348:Drivers/CMSIS/Include/core_cm7.h **** /* TPI ITATBCTR2 Register Definitions */
1349:Drivers/CMSIS/Include/core_cm7.h **** #define TPI_ITATBCTR2_ATREADY2_Pos          0U                                         /*!< TPI ITA
1350:Drivers/CMSIS/Include/core_cm7.h **** #define TPI_ITATBCTR2_ATREADY2_Msk         (0x1UL /*<< TPI_ITATBCTR2_ATREADY2_Pos*/)   /*!< TPI ITA
1351:Drivers/CMSIS/Include/core_cm7.h **** 
1352:Drivers/CMSIS/Include/core_cm7.h **** #define TPI_ITATBCTR2_ATREADY1_Pos          0U                                         /*!< TPI ITA
1353:Drivers/CMSIS/Include/core_cm7.h **** #define TPI_ITATBCTR2_ATREADY1_Msk         (0x1UL /*<< TPI_ITATBCTR2_ATREADY1_Pos*/)   /*!< TPI ITA
1354:Drivers/CMSIS/Include/core_cm7.h **** 
1355:Drivers/CMSIS/Include/core_cm7.h **** /* TPI Integration ITM Data Register Definitions (FIFO1) */
1356:Drivers/CMSIS/Include/core_cm7.h **** #define TPI_FIFO1_ITM_ATVALID_Pos          29U                                         /*!< TPI FIF
1357:Drivers/CMSIS/Include/core_cm7.h **** #define TPI_FIFO1_ITM_ATVALID_Msk          (0x3UL << TPI_FIFO1_ITM_ATVALID_Pos)        /*!< TPI FIF
1358:Drivers/CMSIS/Include/core_cm7.h **** 
1359:Drivers/CMSIS/Include/core_cm7.h **** #define TPI_FIFO1_ITM_bytecount_Pos        27U                                         /*!< TPI FIF
1360:Drivers/CMSIS/Include/core_cm7.h **** #define TPI_FIFO1_ITM_bytecount_Msk        (0x3UL << TPI_FIFO1_ITM_bytecount_Pos)      /*!< TPI FIF
1361:Drivers/CMSIS/Include/core_cm7.h **** 
1362:Drivers/CMSIS/Include/core_cm7.h **** #define TPI_FIFO1_ETM_ATVALID_Pos          26U                                         /*!< TPI FIF
1363:Drivers/CMSIS/Include/core_cm7.h **** #define TPI_FIFO1_ETM_ATVALID_Msk          (0x3UL << TPI_FIFO1_ETM_ATVALID_Pos)        /*!< TPI FIF
1364:Drivers/CMSIS/Include/core_cm7.h **** 
1365:Drivers/CMSIS/Include/core_cm7.h **** #define TPI_FIFO1_ETM_bytecount_Pos        24U                                         /*!< TPI FIF
1366:Drivers/CMSIS/Include/core_cm7.h **** #define TPI_FIFO1_ETM_bytecount_Msk        (0x3UL << TPI_FIFO1_ETM_bytecount_Pos)      /*!< TPI FIF
1367:Drivers/CMSIS/Include/core_cm7.h **** 
1368:Drivers/CMSIS/Include/core_cm7.h **** #define TPI_FIFO1_ITM2_Pos                 16U                                         /*!< TPI FIF
ARM GAS  /var/folders/4f/bvl6__ys6qq7h5n0wwljfc200000gn/T//cchNM4Pb.s 			page 52


1369:Drivers/CMSIS/Include/core_cm7.h **** #define TPI_FIFO1_ITM2_Msk                 (0xFFUL << TPI_FIFO1_ITM2_Pos)              /*!< TPI FIF
1370:Drivers/CMSIS/Include/core_cm7.h **** 
1371:Drivers/CMSIS/Include/core_cm7.h **** #define TPI_FIFO1_ITM1_Pos                  8U                                         /*!< TPI FIF
1372:Drivers/CMSIS/Include/core_cm7.h **** #define TPI_FIFO1_ITM1_Msk                 (0xFFUL << TPI_FIFO1_ITM1_Pos)              /*!< TPI FIF
1373:Drivers/CMSIS/Include/core_cm7.h **** 
1374:Drivers/CMSIS/Include/core_cm7.h **** #define TPI_FIFO1_ITM0_Pos                  0U                                         /*!< TPI FIF
1375:Drivers/CMSIS/Include/core_cm7.h **** #define TPI_FIFO1_ITM0_Msk                 (0xFFUL /*<< TPI_FIFO1_ITM0_Pos*/)          /*!< TPI FIF
1376:Drivers/CMSIS/Include/core_cm7.h **** 
1377:Drivers/CMSIS/Include/core_cm7.h **** /* TPI ITATBCTR0 Register Definitions */
1378:Drivers/CMSIS/Include/core_cm7.h **** #define TPI_ITATBCTR0_ATREADY2_Pos          0U                                         /*!< TPI ITA
1379:Drivers/CMSIS/Include/core_cm7.h **** #define TPI_ITATBCTR0_ATREADY2_Msk         (0x1UL /*<< TPI_ITATBCTR0_ATREADY2_Pos*/)   /*!< TPI ITA
1380:Drivers/CMSIS/Include/core_cm7.h **** 
1381:Drivers/CMSIS/Include/core_cm7.h **** #define TPI_ITATBCTR0_ATREADY1_Pos          0U                                         /*!< TPI ITA
1382:Drivers/CMSIS/Include/core_cm7.h **** #define TPI_ITATBCTR0_ATREADY1_Msk         (0x1UL /*<< TPI_ITATBCTR0_ATREADY1_Pos*/)   /*!< TPI ITA
1383:Drivers/CMSIS/Include/core_cm7.h **** 
1384:Drivers/CMSIS/Include/core_cm7.h **** /* TPI Integration Mode Control Register Definitions */
1385:Drivers/CMSIS/Include/core_cm7.h **** #define TPI_ITCTRL_Mode_Pos                 0U                                         /*!< TPI ITC
1386:Drivers/CMSIS/Include/core_cm7.h **** #define TPI_ITCTRL_Mode_Msk                (0x3UL /*<< TPI_ITCTRL_Mode_Pos*/)          /*!< TPI ITC
1387:Drivers/CMSIS/Include/core_cm7.h **** 
1388:Drivers/CMSIS/Include/core_cm7.h **** /* TPI DEVID Register Definitions */
1389:Drivers/CMSIS/Include/core_cm7.h **** #define TPI_DEVID_NRZVALID_Pos             11U                                         /*!< TPI DEV
1390:Drivers/CMSIS/Include/core_cm7.h **** #define TPI_DEVID_NRZVALID_Msk             (0x1UL << TPI_DEVID_NRZVALID_Pos)           /*!< TPI DEV
1391:Drivers/CMSIS/Include/core_cm7.h **** 
1392:Drivers/CMSIS/Include/core_cm7.h **** #define TPI_DEVID_MANCVALID_Pos            10U                                         /*!< TPI DEV
1393:Drivers/CMSIS/Include/core_cm7.h **** #define TPI_DEVID_MANCVALID_Msk            (0x1UL << TPI_DEVID_MANCVALID_Pos)          /*!< TPI DEV
1394:Drivers/CMSIS/Include/core_cm7.h **** 
1395:Drivers/CMSIS/Include/core_cm7.h **** #define TPI_DEVID_PTINVALID_Pos             9U                                         /*!< TPI DEV
1396:Drivers/CMSIS/Include/core_cm7.h **** #define TPI_DEVID_PTINVALID_Msk            (0x1UL << TPI_DEVID_PTINVALID_Pos)          /*!< TPI DEV
1397:Drivers/CMSIS/Include/core_cm7.h **** 
1398:Drivers/CMSIS/Include/core_cm7.h **** #define TPI_DEVID_MinBufSz_Pos              6U                                         /*!< TPI DEV
1399:Drivers/CMSIS/Include/core_cm7.h **** #define TPI_DEVID_MinBufSz_Msk             (0x7UL << TPI_DEVID_MinBufSz_Pos)           /*!< TPI DEV
1400:Drivers/CMSIS/Include/core_cm7.h **** 
1401:Drivers/CMSIS/Include/core_cm7.h **** #define TPI_DEVID_AsynClkIn_Pos             5U                                         /*!< TPI DEV
1402:Drivers/CMSIS/Include/core_cm7.h **** #define TPI_DEVID_AsynClkIn_Msk            (0x1UL << TPI_DEVID_AsynClkIn_Pos)          /*!< TPI DEV
1403:Drivers/CMSIS/Include/core_cm7.h **** 
1404:Drivers/CMSIS/Include/core_cm7.h **** #define TPI_DEVID_NrTraceInput_Pos          0U                                         /*!< TPI DEV
1405:Drivers/CMSIS/Include/core_cm7.h **** #define TPI_DEVID_NrTraceInput_Msk         (0x1FUL /*<< TPI_DEVID_NrTraceInput_Pos*/)  /*!< TPI DEV
1406:Drivers/CMSIS/Include/core_cm7.h **** 
1407:Drivers/CMSIS/Include/core_cm7.h **** /* TPI DEVTYPE Register Definitions */
1408:Drivers/CMSIS/Include/core_cm7.h **** #define TPI_DEVTYPE_SubType_Pos             4U                                         /*!< TPI DEV
1409:Drivers/CMSIS/Include/core_cm7.h **** #define TPI_DEVTYPE_SubType_Msk            (0xFUL /*<< TPI_DEVTYPE_SubType_Pos*/)      /*!< TPI DEV
1410:Drivers/CMSIS/Include/core_cm7.h **** 
1411:Drivers/CMSIS/Include/core_cm7.h **** #define TPI_DEVTYPE_MajorType_Pos           0U                                         /*!< TPI DEV
1412:Drivers/CMSIS/Include/core_cm7.h **** #define TPI_DEVTYPE_MajorType_Msk          (0xFUL << TPI_DEVTYPE_MajorType_Pos)        /*!< TPI DEV
1413:Drivers/CMSIS/Include/core_cm7.h **** 
1414:Drivers/CMSIS/Include/core_cm7.h **** /*@}*/ /* end of group CMSIS_TPI */
1415:Drivers/CMSIS/Include/core_cm7.h **** 
1416:Drivers/CMSIS/Include/core_cm7.h **** 
1417:Drivers/CMSIS/Include/core_cm7.h **** #if defined (__MPU_PRESENT) && (__MPU_PRESENT == 1U)
1418:Drivers/CMSIS/Include/core_cm7.h **** /**
1419:Drivers/CMSIS/Include/core_cm7.h ****   \ingroup  CMSIS_core_register
1420:Drivers/CMSIS/Include/core_cm7.h ****   \defgroup CMSIS_MPU     Memory Protection Unit (MPU)
1421:Drivers/CMSIS/Include/core_cm7.h ****   \brief    Type definitions for the Memory Protection Unit (MPU)
1422:Drivers/CMSIS/Include/core_cm7.h ****   @{
1423:Drivers/CMSIS/Include/core_cm7.h ****  */
1424:Drivers/CMSIS/Include/core_cm7.h **** 
1425:Drivers/CMSIS/Include/core_cm7.h **** /**
ARM GAS  /var/folders/4f/bvl6__ys6qq7h5n0wwljfc200000gn/T//cchNM4Pb.s 			page 53


1426:Drivers/CMSIS/Include/core_cm7.h ****   \brief  Structure type to access the Memory Protection Unit (MPU).
1427:Drivers/CMSIS/Include/core_cm7.h ****  */
1428:Drivers/CMSIS/Include/core_cm7.h **** typedef struct
1429:Drivers/CMSIS/Include/core_cm7.h **** {
1430:Drivers/CMSIS/Include/core_cm7.h ****   __IM  uint32_t TYPE;                   /*!< Offset: 0x000 (R/ )  MPU Type Register */
1431:Drivers/CMSIS/Include/core_cm7.h ****   __IOM uint32_t CTRL;                   /*!< Offset: 0x004 (R/W)  MPU Control Register */
1432:Drivers/CMSIS/Include/core_cm7.h ****   __IOM uint32_t RNR;                    /*!< Offset: 0x008 (R/W)  MPU Region RNRber Register */
1433:Drivers/CMSIS/Include/core_cm7.h ****   __IOM uint32_t RBAR;                   /*!< Offset: 0x00C (R/W)  MPU Region Base Address Register
1434:Drivers/CMSIS/Include/core_cm7.h ****   __IOM uint32_t RASR;                   /*!< Offset: 0x010 (R/W)  MPU Region Attribute and Size Re
1435:Drivers/CMSIS/Include/core_cm7.h ****   __IOM uint32_t RBAR_A1;                /*!< Offset: 0x014 (R/W)  MPU Alias 1 Region Base Address 
1436:Drivers/CMSIS/Include/core_cm7.h ****   __IOM uint32_t RASR_A1;                /*!< Offset: 0x018 (R/W)  MPU Alias 1 Region Attribute and
1437:Drivers/CMSIS/Include/core_cm7.h ****   __IOM uint32_t RBAR_A2;                /*!< Offset: 0x01C (R/W)  MPU Alias 2 Region Base Address 
1438:Drivers/CMSIS/Include/core_cm7.h ****   __IOM uint32_t RASR_A2;                /*!< Offset: 0x020 (R/W)  MPU Alias 2 Region Attribute and
1439:Drivers/CMSIS/Include/core_cm7.h ****   __IOM uint32_t RBAR_A3;                /*!< Offset: 0x024 (R/W)  MPU Alias 3 Region Base Address 
1440:Drivers/CMSIS/Include/core_cm7.h ****   __IOM uint32_t RASR_A3;                /*!< Offset: 0x028 (R/W)  MPU Alias 3 Region Attribute and
1441:Drivers/CMSIS/Include/core_cm7.h **** } MPU_Type;
1442:Drivers/CMSIS/Include/core_cm7.h **** 
1443:Drivers/CMSIS/Include/core_cm7.h **** #define MPU_TYPE_RALIASES                  4U
1444:Drivers/CMSIS/Include/core_cm7.h **** 
1445:Drivers/CMSIS/Include/core_cm7.h **** /* MPU Type Register Definitions */
1446:Drivers/CMSIS/Include/core_cm7.h **** #define MPU_TYPE_IREGION_Pos               16U                                            /*!< MPU 
1447:Drivers/CMSIS/Include/core_cm7.h **** #define MPU_TYPE_IREGION_Msk               (0xFFUL << MPU_TYPE_IREGION_Pos)               /*!< MPU 
1448:Drivers/CMSIS/Include/core_cm7.h **** 
1449:Drivers/CMSIS/Include/core_cm7.h **** #define MPU_TYPE_DREGION_Pos                8U                                            /*!< MPU 
1450:Drivers/CMSIS/Include/core_cm7.h **** #define MPU_TYPE_DREGION_Msk               (0xFFUL << MPU_TYPE_DREGION_Pos)               /*!< MPU 
1451:Drivers/CMSIS/Include/core_cm7.h **** 
1452:Drivers/CMSIS/Include/core_cm7.h **** #define MPU_TYPE_SEPARATE_Pos               0U                                            /*!< MPU 
1453:Drivers/CMSIS/Include/core_cm7.h **** #define MPU_TYPE_SEPARATE_Msk              (1UL /*<< MPU_TYPE_SEPARATE_Pos*/)             /*!< MPU 
1454:Drivers/CMSIS/Include/core_cm7.h **** 
1455:Drivers/CMSIS/Include/core_cm7.h **** /* MPU Control Register Definitions */
1456:Drivers/CMSIS/Include/core_cm7.h **** #define MPU_CTRL_PRIVDEFENA_Pos             2U                                            /*!< MPU 
1457:Drivers/CMSIS/Include/core_cm7.h **** #define MPU_CTRL_PRIVDEFENA_Msk            (1UL << MPU_CTRL_PRIVDEFENA_Pos)               /*!< MPU 
1458:Drivers/CMSIS/Include/core_cm7.h **** 
1459:Drivers/CMSIS/Include/core_cm7.h **** #define MPU_CTRL_HFNMIENA_Pos               1U                                            /*!< MPU 
1460:Drivers/CMSIS/Include/core_cm7.h **** #define MPU_CTRL_HFNMIENA_Msk              (1UL << MPU_CTRL_HFNMIENA_Pos)                 /*!< MPU 
1461:Drivers/CMSIS/Include/core_cm7.h **** 
1462:Drivers/CMSIS/Include/core_cm7.h **** #define MPU_CTRL_ENABLE_Pos                 0U                                            /*!< MPU 
1463:Drivers/CMSIS/Include/core_cm7.h **** #define MPU_CTRL_ENABLE_Msk                (1UL /*<< MPU_CTRL_ENABLE_Pos*/)               /*!< MPU 
1464:Drivers/CMSIS/Include/core_cm7.h **** 
1465:Drivers/CMSIS/Include/core_cm7.h **** /* MPU Region Number Register Definitions */
1466:Drivers/CMSIS/Include/core_cm7.h **** #define MPU_RNR_REGION_Pos                  0U                                            /*!< MPU 
1467:Drivers/CMSIS/Include/core_cm7.h **** #define MPU_RNR_REGION_Msk                 (0xFFUL /*<< MPU_RNR_REGION_Pos*/)             /*!< MPU 
1468:Drivers/CMSIS/Include/core_cm7.h **** 
1469:Drivers/CMSIS/Include/core_cm7.h **** /* MPU Region Base Address Register Definitions */
1470:Drivers/CMSIS/Include/core_cm7.h **** #define MPU_RBAR_ADDR_Pos                   5U                                            /*!< MPU 
1471:Drivers/CMSIS/Include/core_cm7.h **** #define MPU_RBAR_ADDR_Msk                  (0x7FFFFFFUL << MPU_RBAR_ADDR_Pos)             /*!< MPU 
1472:Drivers/CMSIS/Include/core_cm7.h **** 
1473:Drivers/CMSIS/Include/core_cm7.h **** #define MPU_RBAR_VALID_Pos                  4U                                            /*!< MPU 
1474:Drivers/CMSIS/Include/core_cm7.h **** #define MPU_RBAR_VALID_Msk                 (1UL << MPU_RBAR_VALID_Pos)                    /*!< MPU 
1475:Drivers/CMSIS/Include/core_cm7.h **** 
1476:Drivers/CMSIS/Include/core_cm7.h **** #define MPU_RBAR_REGION_Pos                 0U                                            /*!< MPU 
1477:Drivers/CMSIS/Include/core_cm7.h **** #define MPU_RBAR_REGION_Msk                (0xFUL /*<< MPU_RBAR_REGION_Pos*/)             /*!< MPU 
1478:Drivers/CMSIS/Include/core_cm7.h **** 
1479:Drivers/CMSIS/Include/core_cm7.h **** /* MPU Region Attribute and Size Register Definitions */
1480:Drivers/CMSIS/Include/core_cm7.h **** #define MPU_RASR_ATTRS_Pos                 16U                                            /*!< MPU 
1481:Drivers/CMSIS/Include/core_cm7.h **** #define MPU_RASR_ATTRS_Msk                 (0xFFFFUL << MPU_RASR_ATTRS_Pos)               /*!< MPU 
1482:Drivers/CMSIS/Include/core_cm7.h **** 
ARM GAS  /var/folders/4f/bvl6__ys6qq7h5n0wwljfc200000gn/T//cchNM4Pb.s 			page 54


1483:Drivers/CMSIS/Include/core_cm7.h **** #define MPU_RASR_XN_Pos                    28U                                            /*!< MPU 
1484:Drivers/CMSIS/Include/core_cm7.h **** #define MPU_RASR_XN_Msk                    (1UL << MPU_RASR_XN_Pos)                       /*!< MPU 
1485:Drivers/CMSIS/Include/core_cm7.h **** 
1486:Drivers/CMSIS/Include/core_cm7.h **** #define MPU_RASR_AP_Pos                    24U                                            /*!< MPU 
1487:Drivers/CMSIS/Include/core_cm7.h **** #define MPU_RASR_AP_Msk                    (0x7UL << MPU_RASR_AP_Pos)                     /*!< MPU 
1488:Drivers/CMSIS/Include/core_cm7.h **** 
1489:Drivers/CMSIS/Include/core_cm7.h **** #define MPU_RASR_TEX_Pos                   19U                                            /*!< MPU 
1490:Drivers/CMSIS/Include/core_cm7.h **** #define MPU_RASR_TEX_Msk                   (0x7UL << MPU_RASR_TEX_Pos)                    /*!< MPU 
1491:Drivers/CMSIS/Include/core_cm7.h **** 
1492:Drivers/CMSIS/Include/core_cm7.h **** #define MPU_RASR_S_Pos                     18U                                            /*!< MPU 
1493:Drivers/CMSIS/Include/core_cm7.h **** #define MPU_RASR_S_Msk                     (1UL << MPU_RASR_S_Pos)                        /*!< MPU 
1494:Drivers/CMSIS/Include/core_cm7.h **** 
1495:Drivers/CMSIS/Include/core_cm7.h **** #define MPU_RASR_C_Pos                     17U                                            /*!< MPU 
1496:Drivers/CMSIS/Include/core_cm7.h **** #define MPU_RASR_C_Msk                     (1UL << MPU_RASR_C_Pos)                        /*!< MPU 
1497:Drivers/CMSIS/Include/core_cm7.h **** 
1498:Drivers/CMSIS/Include/core_cm7.h **** #define MPU_RASR_B_Pos                     16U                                            /*!< MPU 
1499:Drivers/CMSIS/Include/core_cm7.h **** #define MPU_RASR_B_Msk                     (1UL << MPU_RASR_B_Pos)                        /*!< MPU 
1500:Drivers/CMSIS/Include/core_cm7.h **** 
1501:Drivers/CMSIS/Include/core_cm7.h **** #define MPU_RASR_SRD_Pos                    8U                                            /*!< MPU 
1502:Drivers/CMSIS/Include/core_cm7.h **** #define MPU_RASR_SRD_Msk                   (0xFFUL << MPU_RASR_SRD_Pos)                   /*!< MPU 
1503:Drivers/CMSIS/Include/core_cm7.h **** 
1504:Drivers/CMSIS/Include/core_cm7.h **** #define MPU_RASR_SIZE_Pos                   1U                                            /*!< MPU 
1505:Drivers/CMSIS/Include/core_cm7.h **** #define MPU_RASR_SIZE_Msk                  (0x1FUL << MPU_RASR_SIZE_Pos)                  /*!< MPU 
1506:Drivers/CMSIS/Include/core_cm7.h **** 
1507:Drivers/CMSIS/Include/core_cm7.h **** #define MPU_RASR_ENABLE_Pos                 0U                                            /*!< MPU 
1508:Drivers/CMSIS/Include/core_cm7.h **** #define MPU_RASR_ENABLE_Msk                (1UL /*<< MPU_RASR_ENABLE_Pos*/)               /*!< MPU 
1509:Drivers/CMSIS/Include/core_cm7.h **** 
1510:Drivers/CMSIS/Include/core_cm7.h **** /*@} end of group CMSIS_MPU */
1511:Drivers/CMSIS/Include/core_cm7.h **** #endif /* defined (__MPU_PRESENT) && (__MPU_PRESENT == 1U) */
1512:Drivers/CMSIS/Include/core_cm7.h **** 
1513:Drivers/CMSIS/Include/core_cm7.h **** 
1514:Drivers/CMSIS/Include/core_cm7.h **** /**
1515:Drivers/CMSIS/Include/core_cm7.h ****   \ingroup  CMSIS_core_register
1516:Drivers/CMSIS/Include/core_cm7.h ****   \defgroup CMSIS_FPU     Floating Point Unit (FPU)
1517:Drivers/CMSIS/Include/core_cm7.h ****   \brief    Type definitions for the Floating Point Unit (FPU)
1518:Drivers/CMSIS/Include/core_cm7.h ****   @{
1519:Drivers/CMSIS/Include/core_cm7.h ****  */
1520:Drivers/CMSIS/Include/core_cm7.h **** 
1521:Drivers/CMSIS/Include/core_cm7.h **** /**
1522:Drivers/CMSIS/Include/core_cm7.h ****   \brief  Structure type to access the Floating Point Unit (FPU).
1523:Drivers/CMSIS/Include/core_cm7.h ****  */
1524:Drivers/CMSIS/Include/core_cm7.h **** typedef struct
1525:Drivers/CMSIS/Include/core_cm7.h **** {
1526:Drivers/CMSIS/Include/core_cm7.h ****         uint32_t RESERVED0[1U];
1527:Drivers/CMSIS/Include/core_cm7.h ****   __IOM uint32_t FPCCR;                  /*!< Offset: 0x004 (R/W)  Floating-Point Context Control R
1528:Drivers/CMSIS/Include/core_cm7.h ****   __IOM uint32_t FPCAR;                  /*!< Offset: 0x008 (R/W)  Floating-Point Context Address R
1529:Drivers/CMSIS/Include/core_cm7.h ****   __IOM uint32_t FPDSCR;                 /*!< Offset: 0x00C (R/W)  Floating-Point Default Status Co
1530:Drivers/CMSIS/Include/core_cm7.h ****   __IM  uint32_t MVFR0;                  /*!< Offset: 0x010 (R/ )  Media and FP Feature Register 0 
1531:Drivers/CMSIS/Include/core_cm7.h ****   __IM  uint32_t MVFR1;                  /*!< Offset: 0x014 (R/ )  Media and FP Feature Register 1 
1532:Drivers/CMSIS/Include/core_cm7.h ****   __IM  uint32_t MVFR2;                  /*!< Offset: 0x018 (R/ )  Media and FP Feature Register 2 
1533:Drivers/CMSIS/Include/core_cm7.h **** } FPU_Type;
1534:Drivers/CMSIS/Include/core_cm7.h **** 
1535:Drivers/CMSIS/Include/core_cm7.h **** /* Floating-Point Context Control Register Definitions */
1536:Drivers/CMSIS/Include/core_cm7.h **** #define FPU_FPCCR_ASPEN_Pos                31U                                            /*!< FPCC
1537:Drivers/CMSIS/Include/core_cm7.h **** #define FPU_FPCCR_ASPEN_Msk                (1UL << FPU_FPCCR_ASPEN_Pos)                   /*!< FPCC
1538:Drivers/CMSIS/Include/core_cm7.h **** 
1539:Drivers/CMSIS/Include/core_cm7.h **** #define FPU_FPCCR_LSPEN_Pos                30U                                            /*!< FPCC
ARM GAS  /var/folders/4f/bvl6__ys6qq7h5n0wwljfc200000gn/T//cchNM4Pb.s 			page 55


1540:Drivers/CMSIS/Include/core_cm7.h **** #define FPU_FPCCR_LSPEN_Msk                (1UL << FPU_FPCCR_LSPEN_Pos)                   /*!< FPCC
1541:Drivers/CMSIS/Include/core_cm7.h **** 
1542:Drivers/CMSIS/Include/core_cm7.h **** #define FPU_FPCCR_MONRDY_Pos                8U                                            /*!< FPCC
1543:Drivers/CMSIS/Include/core_cm7.h **** #define FPU_FPCCR_MONRDY_Msk               (1UL << FPU_FPCCR_MONRDY_Pos)                  /*!< FPCC
1544:Drivers/CMSIS/Include/core_cm7.h **** 
1545:Drivers/CMSIS/Include/core_cm7.h **** #define FPU_FPCCR_BFRDY_Pos                 6U                                            /*!< FPCC
1546:Drivers/CMSIS/Include/core_cm7.h **** #define FPU_FPCCR_BFRDY_Msk                (1UL << FPU_FPCCR_BFRDY_Pos)                   /*!< FPCC
1547:Drivers/CMSIS/Include/core_cm7.h **** 
1548:Drivers/CMSIS/Include/core_cm7.h **** #define FPU_FPCCR_MMRDY_Pos                 5U                                            /*!< FPCC
1549:Drivers/CMSIS/Include/core_cm7.h **** #define FPU_FPCCR_MMRDY_Msk                (1UL << FPU_FPCCR_MMRDY_Pos)                   /*!< FPCC
1550:Drivers/CMSIS/Include/core_cm7.h **** 
1551:Drivers/CMSIS/Include/core_cm7.h **** #define FPU_FPCCR_HFRDY_Pos                 4U                                            /*!< FPCC
1552:Drivers/CMSIS/Include/core_cm7.h **** #define FPU_FPCCR_HFRDY_Msk                (1UL << FPU_FPCCR_HFRDY_Pos)                   /*!< FPCC
1553:Drivers/CMSIS/Include/core_cm7.h **** 
1554:Drivers/CMSIS/Include/core_cm7.h **** #define FPU_FPCCR_THREAD_Pos                3U                                            /*!< FPCC
1555:Drivers/CMSIS/Include/core_cm7.h **** #define FPU_FPCCR_THREAD_Msk               (1UL << FPU_FPCCR_THREAD_Pos)                  /*!< FPCC
1556:Drivers/CMSIS/Include/core_cm7.h **** 
1557:Drivers/CMSIS/Include/core_cm7.h **** #define FPU_FPCCR_USER_Pos                  1U                                            /*!< FPCC
1558:Drivers/CMSIS/Include/core_cm7.h **** #define FPU_FPCCR_USER_Msk                 (1UL << FPU_FPCCR_USER_Pos)                    /*!< FPCC
1559:Drivers/CMSIS/Include/core_cm7.h **** 
1560:Drivers/CMSIS/Include/core_cm7.h **** #define FPU_FPCCR_LSPACT_Pos                0U                                            /*!< FPCC
1561:Drivers/CMSIS/Include/core_cm7.h **** #define FPU_FPCCR_LSPACT_Msk               (1UL /*<< FPU_FPCCR_LSPACT_Pos*/)              /*!< FPCC
1562:Drivers/CMSIS/Include/core_cm7.h **** 
1563:Drivers/CMSIS/Include/core_cm7.h **** /* Floating-Point Context Address Register Definitions */
1564:Drivers/CMSIS/Include/core_cm7.h **** #define FPU_FPCAR_ADDRESS_Pos               3U                                            /*!< FPCA
1565:Drivers/CMSIS/Include/core_cm7.h **** #define FPU_FPCAR_ADDRESS_Msk              (0x1FFFFFFFUL << FPU_FPCAR_ADDRESS_Pos)        /*!< FPCA
1566:Drivers/CMSIS/Include/core_cm7.h **** 
1567:Drivers/CMSIS/Include/core_cm7.h **** /* Floating-Point Default Status Control Register Definitions */
1568:Drivers/CMSIS/Include/core_cm7.h **** #define FPU_FPDSCR_AHP_Pos                 26U                                            /*!< FPDS
1569:Drivers/CMSIS/Include/core_cm7.h **** #define FPU_FPDSCR_AHP_Msk                 (1UL << FPU_FPDSCR_AHP_Pos)                    /*!< FPDS
1570:Drivers/CMSIS/Include/core_cm7.h **** 
1571:Drivers/CMSIS/Include/core_cm7.h **** #define FPU_FPDSCR_DN_Pos                  25U                                            /*!< FPDS
1572:Drivers/CMSIS/Include/core_cm7.h **** #define FPU_FPDSCR_DN_Msk                  (1UL << FPU_FPDSCR_DN_Pos)                     /*!< FPDS
1573:Drivers/CMSIS/Include/core_cm7.h **** 
1574:Drivers/CMSIS/Include/core_cm7.h **** #define FPU_FPDSCR_FZ_Pos                  24U                                            /*!< FPDS
1575:Drivers/CMSIS/Include/core_cm7.h **** #define FPU_FPDSCR_FZ_Msk                  (1UL << FPU_FPDSCR_FZ_Pos)                     /*!< FPDS
1576:Drivers/CMSIS/Include/core_cm7.h **** 
1577:Drivers/CMSIS/Include/core_cm7.h **** #define FPU_FPDSCR_RMode_Pos               22U                                            /*!< FPDS
1578:Drivers/CMSIS/Include/core_cm7.h **** #define FPU_FPDSCR_RMode_Msk               (3UL << FPU_FPDSCR_RMode_Pos)                  /*!< FPDS
1579:Drivers/CMSIS/Include/core_cm7.h **** 
1580:Drivers/CMSIS/Include/core_cm7.h **** /* Media and FP Feature Register 0 Definitions */
1581:Drivers/CMSIS/Include/core_cm7.h **** #define FPU_MVFR0_FP_rounding_modes_Pos    28U                                            /*!< MVFR
1582:Drivers/CMSIS/Include/core_cm7.h **** #define FPU_MVFR0_FP_rounding_modes_Msk    (0xFUL << FPU_MVFR0_FP_rounding_modes_Pos)     /*!< MVFR
1583:Drivers/CMSIS/Include/core_cm7.h **** 
1584:Drivers/CMSIS/Include/core_cm7.h **** #define FPU_MVFR0_Short_vectors_Pos        24U                                            /*!< MVFR
1585:Drivers/CMSIS/Include/core_cm7.h **** #define FPU_MVFR0_Short_vectors_Msk        (0xFUL << FPU_MVFR0_Short_vectors_Pos)         /*!< MVFR
1586:Drivers/CMSIS/Include/core_cm7.h **** 
1587:Drivers/CMSIS/Include/core_cm7.h **** #define FPU_MVFR0_Square_root_Pos          20U                                            /*!< MVFR
1588:Drivers/CMSIS/Include/core_cm7.h **** #define FPU_MVFR0_Square_root_Msk          (0xFUL << FPU_MVFR0_Square_root_Pos)           /*!< MVFR
1589:Drivers/CMSIS/Include/core_cm7.h **** 
1590:Drivers/CMSIS/Include/core_cm7.h **** #define FPU_MVFR0_Divide_Pos               16U                                            /*!< MVFR
1591:Drivers/CMSIS/Include/core_cm7.h **** #define FPU_MVFR0_Divide_Msk               (0xFUL << FPU_MVFR0_Divide_Pos)                /*!< MVFR
1592:Drivers/CMSIS/Include/core_cm7.h **** 
1593:Drivers/CMSIS/Include/core_cm7.h **** #define FPU_MVFR0_FP_excep_trapping_Pos    12U                                            /*!< MVFR
1594:Drivers/CMSIS/Include/core_cm7.h **** #define FPU_MVFR0_FP_excep_trapping_Msk    (0xFUL << FPU_MVFR0_FP_excep_trapping_Pos)     /*!< MVFR
1595:Drivers/CMSIS/Include/core_cm7.h **** 
1596:Drivers/CMSIS/Include/core_cm7.h **** #define FPU_MVFR0_Double_precision_Pos      8U                                            /*!< MVFR
ARM GAS  /var/folders/4f/bvl6__ys6qq7h5n0wwljfc200000gn/T//cchNM4Pb.s 			page 56


1597:Drivers/CMSIS/Include/core_cm7.h **** #define FPU_MVFR0_Double_precision_Msk     (0xFUL << FPU_MVFR0_Double_precision_Pos)      /*!< MVFR
1598:Drivers/CMSIS/Include/core_cm7.h **** 
1599:Drivers/CMSIS/Include/core_cm7.h **** #define FPU_MVFR0_Single_precision_Pos      4U                                            /*!< MVFR
1600:Drivers/CMSIS/Include/core_cm7.h **** #define FPU_MVFR0_Single_precision_Msk     (0xFUL << FPU_MVFR0_Single_precision_Pos)      /*!< MVFR
1601:Drivers/CMSIS/Include/core_cm7.h **** 
1602:Drivers/CMSIS/Include/core_cm7.h **** #define FPU_MVFR0_A_SIMD_registers_Pos      0U                                            /*!< MVFR
1603:Drivers/CMSIS/Include/core_cm7.h **** #define FPU_MVFR0_A_SIMD_registers_Msk     (0xFUL /*<< FPU_MVFR0_A_SIMD_registers_Pos*/)  /*!< MVFR
1604:Drivers/CMSIS/Include/core_cm7.h **** 
1605:Drivers/CMSIS/Include/core_cm7.h **** /* Media and FP Feature Register 1 Definitions */
1606:Drivers/CMSIS/Include/core_cm7.h **** #define FPU_MVFR1_FP_fused_MAC_Pos         28U                                            /*!< MVFR
1607:Drivers/CMSIS/Include/core_cm7.h **** #define FPU_MVFR1_FP_fused_MAC_Msk         (0xFUL << FPU_MVFR1_FP_fused_MAC_Pos)          /*!< MVFR
1608:Drivers/CMSIS/Include/core_cm7.h **** 
1609:Drivers/CMSIS/Include/core_cm7.h **** #define FPU_MVFR1_FP_HPFP_Pos              24U                                            /*!< MVFR
1610:Drivers/CMSIS/Include/core_cm7.h **** #define FPU_MVFR1_FP_HPFP_Msk              (0xFUL << FPU_MVFR1_FP_HPFP_Pos)               /*!< MVFR
1611:Drivers/CMSIS/Include/core_cm7.h **** 
1612:Drivers/CMSIS/Include/core_cm7.h **** #define FPU_MVFR1_D_NaN_mode_Pos            4U                                            /*!< MVFR
1613:Drivers/CMSIS/Include/core_cm7.h **** #define FPU_MVFR1_D_NaN_mode_Msk           (0xFUL << FPU_MVFR1_D_NaN_mode_Pos)            /*!< MVFR
1614:Drivers/CMSIS/Include/core_cm7.h **** 
1615:Drivers/CMSIS/Include/core_cm7.h **** #define FPU_MVFR1_FtZ_mode_Pos              0U                                            /*!< MVFR
1616:Drivers/CMSIS/Include/core_cm7.h **** #define FPU_MVFR1_FtZ_mode_Msk             (0xFUL /*<< FPU_MVFR1_FtZ_mode_Pos*/)          /*!< MVFR
1617:Drivers/CMSIS/Include/core_cm7.h **** 
1618:Drivers/CMSIS/Include/core_cm7.h **** /* Media and FP Feature Register 2 Definitions */
1619:Drivers/CMSIS/Include/core_cm7.h **** 
1620:Drivers/CMSIS/Include/core_cm7.h **** /*@} end of group CMSIS_FPU */
1621:Drivers/CMSIS/Include/core_cm7.h **** 
1622:Drivers/CMSIS/Include/core_cm7.h **** 
1623:Drivers/CMSIS/Include/core_cm7.h **** /**
1624:Drivers/CMSIS/Include/core_cm7.h ****   \ingroup  CMSIS_core_register
1625:Drivers/CMSIS/Include/core_cm7.h ****   \defgroup CMSIS_CoreDebug       Core Debug Registers (CoreDebug)
1626:Drivers/CMSIS/Include/core_cm7.h ****   \brief    Type definitions for the Core Debug Registers
1627:Drivers/CMSIS/Include/core_cm7.h ****   @{
1628:Drivers/CMSIS/Include/core_cm7.h ****  */
1629:Drivers/CMSIS/Include/core_cm7.h **** 
1630:Drivers/CMSIS/Include/core_cm7.h **** /**
1631:Drivers/CMSIS/Include/core_cm7.h ****   \brief  Structure type to access the Core Debug Register (CoreDebug).
1632:Drivers/CMSIS/Include/core_cm7.h ****  */
1633:Drivers/CMSIS/Include/core_cm7.h **** typedef struct
1634:Drivers/CMSIS/Include/core_cm7.h **** {
1635:Drivers/CMSIS/Include/core_cm7.h ****   __IOM uint32_t DHCSR;                  /*!< Offset: 0x000 (R/W)  Debug Halting Control and Status
1636:Drivers/CMSIS/Include/core_cm7.h ****   __OM  uint32_t DCRSR;                  /*!< Offset: 0x004 ( /W)  Debug Core Register Selector Reg
1637:Drivers/CMSIS/Include/core_cm7.h ****   __IOM uint32_t DCRDR;                  /*!< Offset: 0x008 (R/W)  Debug Core Register Data Registe
1638:Drivers/CMSIS/Include/core_cm7.h ****   __IOM uint32_t DEMCR;                  /*!< Offset: 0x00C (R/W)  Debug Exception and Monitor Cont
1639:Drivers/CMSIS/Include/core_cm7.h **** } CoreDebug_Type;
1640:Drivers/CMSIS/Include/core_cm7.h **** 
1641:Drivers/CMSIS/Include/core_cm7.h **** /* Debug Halting Control and Status Register Definitions */
1642:Drivers/CMSIS/Include/core_cm7.h **** #define CoreDebug_DHCSR_DBGKEY_Pos         16U                                            /*!< Core
1643:Drivers/CMSIS/Include/core_cm7.h **** #define CoreDebug_DHCSR_DBGKEY_Msk         (0xFFFFUL << CoreDebug_DHCSR_DBGKEY_Pos)       /*!< Core
1644:Drivers/CMSIS/Include/core_cm7.h **** 
1645:Drivers/CMSIS/Include/core_cm7.h **** #define CoreDebug_DHCSR_S_RESET_ST_Pos     25U                                            /*!< Core
1646:Drivers/CMSIS/Include/core_cm7.h **** #define CoreDebug_DHCSR_S_RESET_ST_Msk     (1UL << CoreDebug_DHCSR_S_RESET_ST_Pos)        /*!< Core
1647:Drivers/CMSIS/Include/core_cm7.h **** 
1648:Drivers/CMSIS/Include/core_cm7.h **** #define CoreDebug_DHCSR_S_RETIRE_ST_Pos    24U                                            /*!< Core
1649:Drivers/CMSIS/Include/core_cm7.h **** #define CoreDebug_DHCSR_S_RETIRE_ST_Msk    (1UL << CoreDebug_DHCSR_S_RETIRE_ST_Pos)       /*!< Core
1650:Drivers/CMSIS/Include/core_cm7.h **** 
1651:Drivers/CMSIS/Include/core_cm7.h **** #define CoreDebug_DHCSR_S_LOCKUP_Pos       19U                                            /*!< Core
1652:Drivers/CMSIS/Include/core_cm7.h **** #define CoreDebug_DHCSR_S_LOCKUP_Msk       (1UL << CoreDebug_DHCSR_S_LOCKUP_Pos)          /*!< Core
1653:Drivers/CMSIS/Include/core_cm7.h **** 
ARM GAS  /var/folders/4f/bvl6__ys6qq7h5n0wwljfc200000gn/T//cchNM4Pb.s 			page 57


1654:Drivers/CMSIS/Include/core_cm7.h **** #define CoreDebug_DHCSR_S_SLEEP_Pos        18U                                            /*!< Core
1655:Drivers/CMSIS/Include/core_cm7.h **** #define CoreDebug_DHCSR_S_SLEEP_Msk        (1UL << CoreDebug_DHCSR_S_SLEEP_Pos)           /*!< Core
1656:Drivers/CMSIS/Include/core_cm7.h **** 
1657:Drivers/CMSIS/Include/core_cm7.h **** #define CoreDebug_DHCSR_S_HALT_Pos         17U                                            /*!< Core
1658:Drivers/CMSIS/Include/core_cm7.h **** #define CoreDebug_DHCSR_S_HALT_Msk         (1UL << CoreDebug_DHCSR_S_HALT_Pos)            /*!< Core
1659:Drivers/CMSIS/Include/core_cm7.h **** 
1660:Drivers/CMSIS/Include/core_cm7.h **** #define CoreDebug_DHCSR_S_REGRDY_Pos       16U                                            /*!< Core
1661:Drivers/CMSIS/Include/core_cm7.h **** #define CoreDebug_DHCSR_S_REGRDY_Msk       (1UL << CoreDebug_DHCSR_S_REGRDY_Pos)          /*!< Core
1662:Drivers/CMSIS/Include/core_cm7.h **** 
1663:Drivers/CMSIS/Include/core_cm7.h **** #define CoreDebug_DHCSR_C_SNAPSTALL_Pos     5U                                            /*!< Core
1664:Drivers/CMSIS/Include/core_cm7.h **** #define CoreDebug_DHCSR_C_SNAPSTALL_Msk    (1UL << CoreDebug_DHCSR_C_SNAPSTALL_Pos)       /*!< Core
1665:Drivers/CMSIS/Include/core_cm7.h **** 
1666:Drivers/CMSIS/Include/core_cm7.h **** #define CoreDebug_DHCSR_C_MASKINTS_Pos      3U                                            /*!< Core
1667:Drivers/CMSIS/Include/core_cm7.h **** #define CoreDebug_DHCSR_C_MASKINTS_Msk     (1UL << CoreDebug_DHCSR_C_MASKINTS_Pos)        /*!< Core
1668:Drivers/CMSIS/Include/core_cm7.h **** 
1669:Drivers/CMSIS/Include/core_cm7.h **** #define CoreDebug_DHCSR_C_STEP_Pos          2U                                            /*!< Core
1670:Drivers/CMSIS/Include/core_cm7.h **** #define CoreDebug_DHCSR_C_STEP_Msk         (1UL << CoreDebug_DHCSR_C_STEP_Pos)            /*!< Core
1671:Drivers/CMSIS/Include/core_cm7.h **** 
1672:Drivers/CMSIS/Include/core_cm7.h **** #define CoreDebug_DHCSR_C_HALT_Pos          1U                                            /*!< Core
1673:Drivers/CMSIS/Include/core_cm7.h **** #define CoreDebug_DHCSR_C_HALT_Msk         (1UL << CoreDebug_DHCSR_C_HALT_Pos)            /*!< Core
1674:Drivers/CMSIS/Include/core_cm7.h **** 
1675:Drivers/CMSIS/Include/core_cm7.h **** #define CoreDebug_DHCSR_C_DEBUGEN_Pos       0U                                            /*!< Core
1676:Drivers/CMSIS/Include/core_cm7.h **** #define CoreDebug_DHCSR_C_DEBUGEN_Msk      (1UL /*<< CoreDebug_DHCSR_C_DEBUGEN_Pos*/)     /*!< Core
1677:Drivers/CMSIS/Include/core_cm7.h **** 
1678:Drivers/CMSIS/Include/core_cm7.h **** /* Debug Core Register Selector Register Definitions */
1679:Drivers/CMSIS/Include/core_cm7.h **** #define CoreDebug_DCRSR_REGWnR_Pos         16U                                            /*!< Core
1680:Drivers/CMSIS/Include/core_cm7.h **** #define CoreDebug_DCRSR_REGWnR_Msk         (1UL << CoreDebug_DCRSR_REGWnR_Pos)            /*!< Core
1681:Drivers/CMSIS/Include/core_cm7.h **** 
1682:Drivers/CMSIS/Include/core_cm7.h **** #define CoreDebug_DCRSR_REGSEL_Pos          0U                                            /*!< Core
1683:Drivers/CMSIS/Include/core_cm7.h **** #define CoreDebug_DCRSR_REGSEL_Msk         (0x1FUL /*<< CoreDebug_DCRSR_REGSEL_Pos*/)     /*!< Core
1684:Drivers/CMSIS/Include/core_cm7.h **** 
1685:Drivers/CMSIS/Include/core_cm7.h **** /* Debug Exception and Monitor Control Register Definitions */
1686:Drivers/CMSIS/Include/core_cm7.h **** #define CoreDebug_DEMCR_TRCENA_Pos         24U                                            /*!< Core
1687:Drivers/CMSIS/Include/core_cm7.h **** #define CoreDebug_DEMCR_TRCENA_Msk         (1UL << CoreDebug_DEMCR_TRCENA_Pos)            /*!< Core
1688:Drivers/CMSIS/Include/core_cm7.h **** 
1689:Drivers/CMSIS/Include/core_cm7.h **** #define CoreDebug_DEMCR_MON_REQ_Pos        19U                                            /*!< Core
1690:Drivers/CMSIS/Include/core_cm7.h **** #define CoreDebug_DEMCR_MON_REQ_Msk        (1UL << CoreDebug_DEMCR_MON_REQ_Pos)           /*!< Core
1691:Drivers/CMSIS/Include/core_cm7.h **** 
1692:Drivers/CMSIS/Include/core_cm7.h **** #define CoreDebug_DEMCR_MON_STEP_Pos       18U                                            /*!< Core
1693:Drivers/CMSIS/Include/core_cm7.h **** #define CoreDebug_DEMCR_MON_STEP_Msk       (1UL << CoreDebug_DEMCR_MON_STEP_Pos)          /*!< Core
1694:Drivers/CMSIS/Include/core_cm7.h **** 
1695:Drivers/CMSIS/Include/core_cm7.h **** #define CoreDebug_DEMCR_MON_PEND_Pos       17U                                            /*!< Core
1696:Drivers/CMSIS/Include/core_cm7.h **** #define CoreDebug_DEMCR_MON_PEND_Msk       (1UL << CoreDebug_DEMCR_MON_PEND_Pos)          /*!< Core
1697:Drivers/CMSIS/Include/core_cm7.h **** 
1698:Drivers/CMSIS/Include/core_cm7.h **** #define CoreDebug_DEMCR_MON_EN_Pos         16U                                            /*!< Core
1699:Drivers/CMSIS/Include/core_cm7.h **** #define CoreDebug_DEMCR_MON_EN_Msk         (1UL << CoreDebug_DEMCR_MON_EN_Pos)            /*!< Core
1700:Drivers/CMSIS/Include/core_cm7.h **** 
1701:Drivers/CMSIS/Include/core_cm7.h **** #define CoreDebug_DEMCR_VC_HARDERR_Pos     10U                                            /*!< Core
1702:Drivers/CMSIS/Include/core_cm7.h **** #define CoreDebug_DEMCR_VC_HARDERR_Msk     (1UL << CoreDebug_DEMCR_VC_HARDERR_Pos)        /*!< Core
1703:Drivers/CMSIS/Include/core_cm7.h **** 
1704:Drivers/CMSIS/Include/core_cm7.h **** #define CoreDebug_DEMCR_VC_INTERR_Pos       9U                                            /*!< Core
1705:Drivers/CMSIS/Include/core_cm7.h **** #define CoreDebug_DEMCR_VC_INTERR_Msk      (1UL << CoreDebug_DEMCR_VC_INTERR_Pos)         /*!< Core
1706:Drivers/CMSIS/Include/core_cm7.h **** 
1707:Drivers/CMSIS/Include/core_cm7.h **** #define CoreDebug_DEMCR_VC_BUSERR_Pos       8U                                            /*!< Core
1708:Drivers/CMSIS/Include/core_cm7.h **** #define CoreDebug_DEMCR_VC_BUSERR_Msk      (1UL << CoreDebug_DEMCR_VC_BUSERR_Pos)         /*!< Core
1709:Drivers/CMSIS/Include/core_cm7.h **** 
1710:Drivers/CMSIS/Include/core_cm7.h **** #define CoreDebug_DEMCR_VC_STATERR_Pos      7U                                            /*!< Core
ARM GAS  /var/folders/4f/bvl6__ys6qq7h5n0wwljfc200000gn/T//cchNM4Pb.s 			page 58


1711:Drivers/CMSIS/Include/core_cm7.h **** #define CoreDebug_DEMCR_VC_STATERR_Msk     (1UL << CoreDebug_DEMCR_VC_STATERR_Pos)        /*!< Core
1712:Drivers/CMSIS/Include/core_cm7.h **** 
1713:Drivers/CMSIS/Include/core_cm7.h **** #define CoreDebug_DEMCR_VC_CHKERR_Pos       6U                                            /*!< Core
1714:Drivers/CMSIS/Include/core_cm7.h **** #define CoreDebug_DEMCR_VC_CHKERR_Msk      (1UL << CoreDebug_DEMCR_VC_CHKERR_Pos)         /*!< Core
1715:Drivers/CMSIS/Include/core_cm7.h **** 
1716:Drivers/CMSIS/Include/core_cm7.h **** #define CoreDebug_DEMCR_VC_NOCPERR_Pos      5U                                            /*!< Core
1717:Drivers/CMSIS/Include/core_cm7.h **** #define CoreDebug_DEMCR_VC_NOCPERR_Msk     (1UL << CoreDebug_DEMCR_VC_NOCPERR_Pos)        /*!< Core
1718:Drivers/CMSIS/Include/core_cm7.h **** 
